(dp0
cropd.Gadget
Types
p1
(I7
tp2
Rp3
(lp4
ccopy_reg
_reconstructor
p5
(cropd.Gadget
WriteMemOp_Gadget
p6
c__builtin__
object
p7
Ntp8
Rp9
(dp10
S'src'
p11
cropd.Gadget
Registers
p12
(I1
tp13
Rp14
sS'addr_reg'
p15
g12
(I2
tp16
Rp17
sS'address'
p18
L80574L
sS'hex'
p19
S'\x11\x83\xc4\x1c[^_]\xc3'
p20
sS'address_end'
p21
L80582L
sS'retn'
p22
NsS'stack_fix'
p23
L12L
sS'modified_regs'
p24
(lp25
g12
(I6
tp26
Rp27
ag12
(I7
tp28
Rp29
asS'offset'
p30
L1583029444L
sS'op'
p31
cropd.Gadget
Operations
p32
(I1
tp33
Rp34
sbag5
(g6
g7
Ntp35
Rp36
(dp37
g11
g12
(I3
tp38
Rp39
sg15
g12
(I4
tp40
Rp41
sg18
L123857L
sg19
S'\x02\x03H\x01\n\xc3'
p42
sg21
L123862L
sg22
Nsg23
L4L
sg24
(lp43
g14
asg30
L0L
sg31
g34
sbag5
(g6
g7
Ntp44
Rp45
(dp46
g11
g14
sg15
g14
sg18
L59181L
sg19
S'\x01\x00\x00\x8b\x04$\x8b,\xb0\x83\xc3'
p47
sg21
L59191L
sg22
Nsg23
L4L
sg24
(lp48
g14
asg30
L0L
sg31
g34
sbag5
(g6
g7
Ntp49
Rp50
(dp51
g11
g14
sg15
g14
sg18
L74392L
sg19
S'\x01\x00\x009\xc3'
p52
sg21
L74396L
sg22
Nsg23
L4L
sg24
(lp53
sg30
L0L
sg31
g34
sbag5
(g6
g7
Ntp54
Rp55
(dp56
g11
g14
sg15
g14
sg18
L16067L
sg19
S'\x01\x00\x83\xc4\x18[\xc3'
p57
sg21
L16073L
sg22
Nsg23
L32L
sg24
(lp58
g17
asg30
L0L
sg31
g34
sbag5
(g6
g7
Ntp59
Rp60
(dp61
g11
g14
sg15
g14
sg18
L122446L
sg19
S'\x01\x00A\xc3'
p62
sg21
L122449L
sg22
Nsg23
L4L
sg24
(lp63
g39
asg30
L0L
sg31
g34
sbag5
(g6
g7
Ntp64
Rp65
(dp66
g11
g14
sg15
g14
sg18
L44556L
sg19
S'\x01\x00\x88\x90D\x12\x00\x00\xc3'
p67
sg21
L44564L
sg22
Nsg23
L4L
sg24
(lp68
sg30
L0L
sg31
g34
sbag5
(g6
g7
Ntp69
Rp70
(dp71
g11
g14
sg15
g14
sg18
L44524L
sg19
S'\x01\x00\x89\x90H\x12\x00\x00\xc3'
p72
sg21
L44532L
sg22
Nsg23
L4L
sg24
(lp73
sg30
L0L
sg31
g34
sbag5
(g6
g7
Ntp74
Rp75
(dp76
g11
g14
sg15
g29
sg18
L48665L
sg19
S'\x01\x85\xc0t\x1c\x8bA\x04\x83\xc3'
p77
sg21
L48674L
sg22
Nsg23
L4L
sg24
(lp78
g14
ag39
asg30
L2333897920L
sg31
g34
sbag5
(g6
g7
Ntp79
Rp80
(dp81
g11
g39
sg15
g39
sg18
L20012L
sg19
S'\x01\x89\x90\xdc\x10\x00\x00\xf3\xc3'
p82
sg21
L20020L
sg22
Nsg23
L4L
sg24
(lp83
g17
asg30
L1105040L
sg31
g34
sbag5
(g6
g7
Ntp84
Rp85
(dp86
g11
g39
sg15
g39
sg18
L46225L
sg19
S'\x01\x89\xc8\x89\x1e\x0f\xb6Q\x01\x84\xd2u\x1b[^\xc3'
p87
sg21
L46240L
sg22
Nsg23
L4L
sg24
(lp88
g41
asg30
L253659592L
sg31
g34
sbag5
(g6
g7
Ntp89
Rp90
(dp91
g11
g17
sg15
g39
sg18
L45708L
sg19
S'\x01\x19\xc0\x83\xe0\xe0\x83\xc0t\x88B\t[\xc3'
p92
sg21
L45721L
sg22
Nsg23
L8L
sg24
(lp93
g17
asg30
L0L
sg31
g34
sbag5
(g6
g7
Ntp94
Rp95
(dp96
g11
g17
sg15
g39
sg18
L45757L
sg19
S'\x01\x19\xc0\x83\xe0\xb5\x83\xc0x\x88B\t[\xc3'
p97
sg21
L45770L
sg22
Nsg23
L8L
sg24
(lp98
g17
asg30
L0L
sg31
g34
sbag5
(g6
g7
Ntp99
Rp100
(dp101
g11
g39
sg15
g41
sg18
L123856L
sg19
S'\x83\x02\x03H\x01\n\xc3'
p102
sg21
L123862L
sg22
Nsg23
L4L
sg24
(lp103
g14
asg30
L0L
sg31
g34
sbag5
(g6
g7
Ntp104
Rp105
(dp106
g11
g39
sg15
g41
sg18
L123860L
sg19
S'\x01\n\xc3'
p107
sg21
L123862L
sg22
Nsg23
L4L
sg24
(lp108
sg30
L0L
sg31
g34
sbag5
(g6
g7
Ntp109
Rp110
(dp111
g11
g39
sg15
g12
(I5
tp112
Rp113
sg18
L135502L
sg19
S'\x01\x0e\x14A\xc3'
p114
sg21
L135506L
sg22
Nsg23
L4L
sg24
(lp115
g14
asg30
L0L
sg31
g34
sbag5
(g6
g7
Ntp116
Rp117
(dp118
g11
g17
sg15
g39
sg18
L45707L
sg19
S'\xf8\x01\x19\xc0\x83\xe0\xe0\x83\xc0t\x88B\t[\xc3'
p119
sg21
L45721L
sg22
Nsg23
L8L
sg24
(lp120
g17
asg30
L0L
sg31
g34
sbag5
(g6
g7
Ntp121
Rp122
(dp123
g11
g17
sg15
g39
sg18
L45756L
sg19
S'\xf8\x01\x19\xc0\x83\xe0\xb5\x83\xc0x\x88B\t[\xc3'
p124
sg21
L45770L
sg22
Nsg23
L8L
sg24
(lp125
g17
asg30
L0L
sg31
g34
sbag5
(g6
g7
Ntp126
Rp127
(dp128
g11
g39
sg15
g41
sg18
L123859L
sg19
S'H\x01\n\xc3'
p129
sg21
L123862L
sg22
Nsg23
L4L
sg24
(lp130
g14
asg30
L0L
sg31
g34
sbag5
(g6
g7
Ntp131
Rp132
(dp133
g11
g14
sg15
g14
sg18
L59176L
sg19
S'k\xfc\x0f\x84 \x01\x00\x00\x8b\x04$\x8b,\xb0\x83\xc3'
p134
sg21
L59191L
sg22
Nsg23
L4L
sg24
(lp135
g27
ag14
asg30
L0L
sg31
g34
sbag5
(g6
g7
Ntp136
Rp137
(dp138
g11
g14
sg15
g14
sg18
L74391L
sg19
S'\x90\x01\x00\x009\xc3'
p139
sg21
L74396L
sg22
Nsg23
L4L
sg24
(lp140
sg30
L0L
sg31
g34
sbag5
(g6
g7
Ntp141
Rp142
(dp143
g11
g17
sg15
g17
sg18
L20350L
sg19
S'\t[^\xc3'
p144
sg21
L20353L
sg22
Nsg23
L4L
sg24
(lp145
sg30
L94L
sg31
g32
(I6
tp146
Rp147
sbag5
(g6
g7
Ntp148
Rp149
(dp150
g11
g14
sg15
g17
sg18
L130244L
sg19
S'\t\x035\x02\n\x0e\x14A\xc3'
p151
sg21
L130252L
sg22
Nsg23
L4L
sg24
(lp152
g14
ag39
asg30
L0L
sg31
g147
sbag5
(g6
g7
Ntp153
Rp154
(dp155
g11
g14
sg15
g14
sg18
L59179L
sg19
S'\x84 \x01\x00\x00\x8b\x04$\x8b,\xb0\x83\xc3'
p156
sg21
L59191L
sg22
Nsg23
L4L
sg24
(lp157
g14
asg30
L0L
sg31
g34
sbag5
(g6
g7
Ntp158
Rp159
(dp160
g11
g14
sg15
g17
sg18
L30808L
sg19
S'1\x83\xc4\x14[^\xc3'
p161
sg21
L30814L
sg22
Nsg23
L4L
sg24
(lp162
sg30
L1583027396L
sg31
g32
(I5
tp163
Rp164
sbasg1
(I6
tp165
Rp166
(lp167
g5
(cropd.Gadget
ReadMemOp_Gadget
p168
g7
Ntp169
Rp170
(dp171
S'dest'
p172
g17
sg15
g17
sg18
L30300L
sg19
S'\x13[\xb8\x01\x00\x00\x00^_\xc3'
p173
sg21
L30309L
sg22
Nsg23
L12L
sg24
(lp174
g27
ag17
ag113
asg30
L4294967224L
sg31
g34
sbag5
(g168
g7
Ntp175
Rp176
(dp177
g172
g39
sg15
g113
sg18
L124328L
sg19
S'\x04E\x0bN\n\xc3'
p178
sg21
L124333L
sg22
Nsg23
L4L
sg24
(lp179
g14
ag39
asg30
L10L
sg31
g147
sbag5
(g168
g7
Ntp180
Rp181
(dp182
g172
g41
sg15
g39
sg18
L117576L
sg19
S'\x04E\x0bQ\n\xc3'
p183
sg21
L117581L
sg22
Nsg23
L4L
sg24
(lp184
g14
ag41
asg30
L10L
sg31
g147
sbag5
(g168
g7
Ntp185
Rp186
(dp187
g172
g41
sg15
g27
sg18
L114604L
sg19
S'\x04F\x0bW\x0e\x14A\xc3'
p188
sg21
L114611L
sg22
Nsg23
L4L
sg24
(lp189
g14
ag41
asg30
L14L
sg31
g147
sbag5
(g168
g7
Ntp190
Rp191
(dp192
g172
g29
sg15
g41
sg18
L123864L
sg19
S'\x04G\x0bj\n\xc3'
p193
sg21
L123869L
sg22
Nsg23
L4L
sg24
(lp194
g14
ag29
asg30
L10L
sg31
g147
sbag5
(g168
g7
Ntp195
Rp196
(dp197
g172
g39
sg15
g113
sg18
L120083L
sg19
S'\x04G\x0bN\n\xc3'
p198
sg21
L120088L
sg22
Nsg23
L4L
sg24
(lp199
g14
ag39
asg30
L10L
sg31
g147
sbag5
(g168
g7
Ntp200
Rp201
(dp202
g172
g39
sg15
g29
sg18
L133896L
sg19
S'\x04I\x0bM\x0e\x14A\xc3'
p203
sg21
L133903L
sg22
Nsg23
L4L
sg24
(lp204
g14
ag39
asg30
L14L
sg31
g147
sbag5
(g168
g7
Ntp205
Rp206
(dp207
g172
g39
sg15
g27
sg18
L120094L
sg19
S'\x04I\x0bO\n\xc3'
p208
sg21
L120099L
sg22
Nsg23
L4L
sg24
(lp209
g14
ag39
asg30
L10L
sg31
g147
sbag5
(g168
g7
Ntp210
Rp211
(dp212
g172
g17
sg15
g39
sg18
L112993L
sg19
S'\x02A\x0e\x0c\x83\x03Y\n\xc3'
p213
sg21
L113001L
sg22
Nsg23
L4L
sg24
(lp214
g14
ag17
asg30
L10L
sg31
g34
sbag5
(g168
g7
Ntp215
Rp216
(dp217
g172
g27
sg15
g113
sg18
L114725L
sg19
S'\x02A\x0e\x0c\x83\x03~\n\xc3'
p218
sg21
L114733L
sg22
Nsg23
L4L
sg24
(lp219
g27
ag14
asg30
L10L
sg31
g34
sbag5
(g168
g7
Ntp220
Rp221
(dp222
g172
g14
sg15
g14
sg18
L37379L
sg19
S'\x03\x00\x00[^_]\xc3'
p223
sg21
L37386L
sg22
Nsg23
L12L
sg24
(lp224
g27
ag14
ag29
asg30
L0L
sg31
g34
sbag5
(g168
g7
Ntp225
Rp226
(dp227
g172
g14
sg15
g17
sg18
L124910L
sg19
S'\x03C\x0e\x10\x83\x04\x02D\n\xc3'
p228
sg21
L124919L
sg22
Nsg23
L4L
sg24
(lp229
g14
asg30
L14L
sg31
g34
sbag5
(g168
g7
Ntp230
Rp231
(dp232
g172
g14
sg15
g17
sg18
L128374L
sg19
S'\x03C\x0e\x10\x83\x04\x02W\n\xc3'
p233
sg21
L128383L
sg22
Nsg23
L4L
sg24
(lp234
g14
asg30
L14L
sg31
g34
sbag5
(g168
g7
Ntp235
Rp236
(dp237
g172
g14
sg15
g39
sg18
L114654L
sg19
S'\x03A\x0e\x10\x83\x04\x02I\n\xc3'
p238
sg21
L114663L
sg22
Nsg23
L4L
sg24
(lp239
g14
asg30
L14L
sg31
g34
sbag5
(g168
g7
Ntp240
Rp241
(dp242
g172
g14
sg15
g41
sg18
L124874L
sg19
S'\x03\x02E\xc3'
p243
sg21
L124877L
sg22
Nsg23
L4L
sg24
(lp244
g14
ag29
asg30
L0L
sg31
g34
sbag5
(g168
g7
Ntp245
Rp246
(dp247
g172
g14
sg15
g41
sg18
L129002L
sg19
S'\x03\x02F\xc3'
p248
sg21
L129005L
sg22
Nsg23
L4L
sg24
(lp249
g14
ag113
asg30
L0L
sg31
g34
sbag5
(g168
g7
Ntp250
Rp251
(dp252
g172
g17
sg15
g17
sg18
L49073L
sg19
S'\x03[^_\xc3'
p253
sg21
L49077L
sg22
Nsg23
L8L
sg24
(lp254
g27
ag17
asg30
L94L
sg31
g34
sbag5
(g168
g7
Ntp255
Rp256
(dp257
g172
g17
sg15
g39
sg18
L112998L
sg19
S'\x03Y\n\xc3'
p258
sg21
L113001L
sg22
Nsg23
L4L
sg24
(lp259
g17
asg30
L10L
sg31
g34
sbag5
(g168
g7
Ntp260
Rp261
(dp262
g172
g39
sg15
g41
sg18
L118478L
sg19
S'\x03\n\xc3'
p263
sg21
L118480L
sg22
Nsg23
L4L
sg24
(lp264
g39
asg30
L0L
sg31
g34
sbag5
(g168
g7
Ntp265
Rp266
(dp267
g172
g27
sg15
g113
sg18
L114730L
sg19
S'\x03~\n\xc3'
p268
sg21
L114733L
sg22
Nsg23
L4L
sg24
(lp269
g27
asg30
L10L
sg31
g34
sbag5
(g168
g7
Ntp270
Rp271
(dp272
g172
g39
sg15
g14
sg18
L120489L
sg19
S'H\x0bH\x0e\x14A\xc3'
p273
sg21
L120495L
sg22
Nsg23
L4L
sg24
(lp274
g14
ag39
asg30
L13L
sg31
g147
sbag5
(g168
g7
Ntp275
Rp276
(dp277
g172
g14
sg15
g29
sg18
L117997L
sg19
S'K\x0bE\n\xc3'
p278
sg21
L118001L
sg22
Nsg23
L4L
sg24
(lp279
g14
ag17
asg30
L10L
sg31
g147
sbag5
(g168
g7
Ntp280
Rp281
(dp282
g172
g39
sg15
g113
sg18
L124329L
sg19
S'E\x0bN\n\xc3'
p283
sg21
L124333L
sg22
Nsg23
L4L
sg24
(lp284
g29
ag39
asg30
L10L
sg31
g147
sbag5
(g168
g7
Ntp285
Rp286
(dp287
g172
g41
sg15
g39
sg18
L117577L
sg19
S'E\x0bQ\n\xc3'
p288
sg21
L117581L
sg22
Nsg23
L4L
sg24
(lp289
g29
ag41
asg30
L10L
sg31
g147
sbag5
(g168
g7
Ntp290
Rp291
(dp292
g172
g41
sg15
g14
sg18
L122668L
sg19
S'C\x0bP\x0e\x14A\xc3'
p293
sg21
L122674L
sg22
Nsg23
L4L
sg24
(lp294
g14
ag41
ag17
asg30
L14L
sg31
g147
sbag5
(g168
g7
Ntp295
Rp296
(dp297
g172
g14
sg15
g29
sg18
L114740L
sg19
S'G\x0bE\n\xc3'
p298
sg21
L114744L
sg22
Nsg23
L4L
sg24
(lp299
g27
ag14
asg30
L10L
sg31
g147
sbag5
(g168
g7
Ntp300
Rp301
(dp302
g172
g14
sg15
g17
sg18
L125117L
sg19
S'G\x0bC\n\xc3'
p303
sg21
L125121L
sg22
Nsg23
L4L
sg24
(lp304
g27
ag14
asg30
L10L
sg31
g147
sbag5
(g168
g7
Ntp305
Rp306
(dp307
g172
g29
sg15
g41
sg18
L123865L
sg19
S'G\x0bj\n\xc3'
p308
sg21
L123869L
sg22
Nsg23
L4L
sg24
(lp309
g27
ag29
asg30
L10L
sg31
g147
sbag5
(g168
g7
Ntp310
Rp311
(dp312
g172
g39
sg15
g113
sg18
L120084L
sg19
S'G\x0bN\n\xc3'
p313
sg21
L120088L
sg22
Nsg23
L4L
sg24
(lp314
g27
ag39
asg30
L10L
sg31
g147
sbag5
(g168
g7
Ntp315
Rp316
(dp317
g172
g14
sg15
g17
sg18
L113185L
sg19
S'F\x0bC\n\xc3'
p318
sg21
L113189L
sg22
Nsg23
L4L
sg24
(lp319
g14
ag113
asg30
L10L
sg31
g147
sbag5
(g168
g7
Ntp320
Rp321
(dp322
g172
g41
sg15
g27
sg18
L114605L
sg19
S'F\x0bW\x0e\x14A\xc3'
p323
sg21
L114611L
sg22
Nsg23
L4L
sg24
(lp324
g14
ag41
ag113
asg30
L14L
sg31
g147
sbag5
(g168
g7
Ntp325
Rp326
(dp327
g172
g14
sg15
g29
sg18
L118012L
sg19
S'D\x0bE\n\xc3'
p328
sg21
L118016L
sg22
Nsg23
L5L
sg24
(lp329
g14
asg30
L10L
sg31
g147
sbag5
(g168
g7
Ntp330
Rp331
(dp332
g172
g17
sg15
g39
sg18
L112996L
sg19
S'\x0c\x83\x03Y\n\xc3'
p333
sg21
L113001L
sg22
Nsg23
L4L
sg24
(lp334
g14
ag17
asg30
L10L
sg31
g34
sbag5
(g168
g7
Ntp335
Rp336
(dp337
g172
g27
sg15
g113
sg18
L114728L
sg19
S'\x0c\x83\x03~\n\xc3'
p338
sg21
L114733L
sg22
Nsg23
L4L
sg24
(lp339
g27
ag14
asg30
L10L
sg31
g34
sbag5
(g168
g7
Ntp340
Rp341
(dp342
g172
g14
sg15
g29
sg18
L114741L
sg19
S'\x0bE\n\xc3'
p343
sg21
L114744L
sg22
Nsg23
L4L
sg24
(lp344
g14
asg30
L10L
sg31
g147
sbag5
(g168
g7
Ntp345
Rp346
(dp347
g172
g14
sg15
g17
sg18
L82095L
sg19
S'\x0b\x83\xc4\x1c[^_]\xc3'
p348
sg21
L82103L
sg22
Nsg23
L12L
sg24
(lp349
g27
ag14
ag29
asg30
L1583029444L
sg31
g147
sbag5
(g168
g7
Ntp350
Rp351
(dp352
g172
g14
sg15
g17
sg18
L113186L
sg19
S'\x0bC\n\xc3'
p353
sg21
L113189L
sg22
Nsg23
L4L
sg24
(lp354
g14
asg30
L10L
sg31
g147
sbag5
(g168
g7
Ntp355
Rp356
(dp357
g172
g14
sg15
g39
sg18
L22335L
sg19
S'\x0b\x81\xc4\x9c\x00\x00\x00[^_]\xc3'
p358
sg21
L22346L
sg22
Nsg23
L12L
sg24
(lp359
g27
ag14
ag29
asg30
L40132L
sg31
g147
sbag5
(g168
g7
Ntp360
Rp361
(dp362
g172
g29
sg15
g41
sg18
L123866L
sg19
S'\x0bj\n\xc3'
p363
sg21
L123869L
sg22
Nsg23
L4L
sg24
(lp364
g29
asg30
L10L
sg31
g147
sbag5
(g168
g7
Ntp365
Rp366
(dp367
g172
g39
sg15
g14
sg18
L120490L
sg19
S'\x0bH\x0e\x14A\xc3'
p368
sg21
L120495L
sg22
Nsg23
L4L
sg24
(lp369
g14
ag39
asg30
L14L
sg31
g147
sbag5
(g168
g7
Ntp370
Rp371
(dp372
g172
g39
sg15
g29
sg18
L133898L
sg19
S'\x0bM\x0e\x14A\xc3'
p373
sg21
L133903L
sg22
Nsg23
L4L
sg24
(lp374
g14
ag39
asg30
L14L
sg31
g147
sbag5
(g168
g7
Ntp375
Rp376
(dp377
g172
g39
sg15
g17
sg18
L47728L
sg19
S'\x0b\x8b\x16\x83\xc4\x04[^\x8d\x04\xc2\xc3'
p378
sg21
L47739L
sg22
Nsg23
L12L
sg24
(lp379
g14
ag17
ag113
ag39
asg30
L79987478L
sg31
g147
sbag5
(g168
g7
Ntp380
Rp381
(dp382
g172
g39
sg15
g27
sg18
L120096L
sg19
S'\x0bO\n\xc3'
p383
sg21
L120099L
sg22
Nsg23
L4L
sg24
(lp384
g39
asg30
L10L
sg31
g147
sbag5
(g168
g7
Ntp385
Rp386
(dp387
g172
g39
sg15
g113
sg18
L120085L
sg19
S'\x0bN\n\xc3'
p388
sg21
L120088L
sg22
Nsg23
L4L
sg24
(lp389
g39
asg30
L10L
sg31
g147
sbag5
(g168
g7
Ntp390
Rp391
(dp392
g172
g41
sg15
g14
sg18
L122669L
sg19
S'\x0bP\x0e\x14A\xc3'
p393
sg21
L122674L
sg22
Nsg23
L4L
sg24
(lp394
g14
ag41
asg30
L14L
sg31
g147
sbag5
(g168
g7
Ntp395
Rp396
(dp397
g172
g41
sg15
g39
sg18
L117578L
sg19
S'\x0bQ\n\xc3'
p398
sg21
L117581L
sg22
Nsg23
L4L
sg24
(lp399
g41
asg30
L10L
sg31
g147
sbag5
(g168
g7
Ntp400
Rp401
(dp402
g172
g41
sg15
g27
sg18
L114606L
sg19
S'\x0bW\x0e\x14A\xc3'
p403
sg21
L114611L
sg22
Nsg23
L4L
sg24
(lp404
g14
ag41
asg30
L14L
sg31
g147
sbasg1
(I5
tp405
Rp406
(lp407
g5
(cropd.Gadget
WriteMem_Gadget
p408
g7
Ntp409
Rp410
(dp411
g11
g39
sg15
g41
sg30
L4L
sg19
S'\x13\x00\x00\x85\xd2\x0fD\xd0\x8bB\x04\x89J\x04\xc3'
p412
sg21
L65011L
sg22
Nsg23
L4L
sg24
(lp413
g14
asg18
L64997L
sbag5
(g408
g7
Ntp414
Rp415
(dp416
g11
g39
sg15
g41
sg30
L4L
sg19
S'\x00\x00\x85\xd2\x0fD\xd0\x8bB\x04\x89J\x04\xc3'
p417
sg21
L65011L
sg22
Nsg23
L4L
sg24
(lp418
g14
asg18
L64998L
sbag5
(g408
g7
Ntp419
Rp420
(dp421
g11
g39
sg15
g41
sg30
L4L
sg19
S'\x00\x85\xd2\x0fD\xd0\x8bB\x04\x89J\x04\xc3'
p422
sg21
L65011L
sg22
Nsg23
L4L
sg24
(lp423
g14
asg18
L64999L
sbag5
(g408
g7
Ntp424
Rp425
(dp426
g11
g41
sg15
g14
sg30
L4680L
sg19
g72
sg21
L44532L
sg22
Nsg23
L4L
sg24
g73
sg18
L44524L
sbag5
(g408
g7
Ntp427
Rp428
(dp429
g11
g41
sg15
g14
sg30
L103519L
sg19
S'\x05\x17\x82\x01\x00\x89\x90H\x12\x00\x00\xc3'
p430
sg21
L44532L
sg22
Nsg23
L4L
sg24
(lp431
g14
asg18
L44521L
sbag5
(g408
g7
Ntp432
Rp433
(dp434
g11
g27
sg15
g17
sg30
L0L
sg19
S'\x83\xc4 \x89;[^_\xc3'
p435
sg21
L65189L
sg22
Nsg23
L48L
sg24
(lp436
g27
ag17
ag113
asg18
L65181L
sbag5
(g408
g7
Ntp437
Rp438
(dp439
g11
g39
sg15
g41
sg30
L4L
sg19
S'\x80`\x13\x00\x00\x85\xd2\x0fD\xd0\x8bB\x04\x89J\x04\xc3'
p440
sg21
L65011L
sg22
Nsg23
L4L
sg24
(lp441
g14
asg18
L64995L
sbag5
(g408
g7
Ntp442
Rp443
(dp444
g11
g39
sg15
g41
sg30
L4L
sg19
S'\x0fD\xd0\x8bB\x04\x89J\x04\xc3'
p445
sg21
L65011L
sg22
Nsg23
L4L
sg24
(lp446
g14
asg18
L65002L
sbag5
(g408
g7
Ntp447
Rp448
(dp449
g11
g41
sg15
g14
sg30
L4680L
sg19
S'\xff\x05\x17\x82\x01\x00\x89\x90H\x12\x00\x00\xc3'
p450
sg21
L44532L
sg22
Nsg23
L4L
sg24
(lp451
sg18
L44520L
sbag5
(g408
g7
Ntp452
Rp453
(dp454
g11
g14
sg15
g17
sg30
L1L
sg19
S'C\x87\x03\x86\x04\x83\x05\x03s\x03\n\xc3'
p455
sg21
L118480L
sg22
Nsg23
L4L
sg24
(lp456
g14
ag17
asg18
L118469L
sbag5
(g408
g7
Ntp457
Rp458
(dp459
g11
g39
sg15
g41
sg30
L4L
sg19
S'\x8d\x80`\x13\x00\x00\x85\xd2\x0fD\xd0\x8bB\x04\x89J\x04\xc3'
p460
sg21
L65011L
sg22
Nsg23
L4L
sg24
(lp461
g14
asg18
L64994L
sbag5
(g408
g7
Ntp462
Rp463
(dp464
g11
g113
sg15
g17
sg30
L0L
sg19
S'\x8dt&\x00\x8931\xc0[^\xc3'
p465
sg21
L48190L
sg22
Nsg23
L12L
sg24
(lp466
g14
ag17
ag113
asg18
L48180L
sbag5
(g408
g7
Ntp467
Rp468
(dp469
g11
g41
sg15
g14
sg30
L4680L
sg19
S'\x89\x90H\x12\x00\x00\xc3'
p470
sg21
L44532L
sg22
Nsg23
L4L
sg24
(lp471
sg18
L44526L
sbag5
(g408
g7
Ntp472
Rp473
(dp474
g11
g41
sg15
g14
sg30
L40L
sg19
S'\x89P(\x89H,\x83\xc4\x04[^\xc3'
p475
sg21
L65088L
sg22
Nsg23
L16L
sg24
(lp476
g17
ag113
asg18
L65077L
sbag5
(g408
g7
Ntp477
Rp478
(dp479
g11
g39
sg15
g14
sg30
L44L
sg19
g475
sg21
L65088L
sg22
Nsg23
L16L
sg24
g476
sg18
L65077L
sbag5
(g408
g7
Ntp480
Rp481
(dp482
g11
g39
sg15
g14
sg30
L44L
sg19
S'\x89H,\x83\xc4\x04[^\xc3'
p483
sg21
L65088L
sg22
Nsg23
L16L
sg24
(lp484
g17
ag113
asg18
L65080L
sbag5
(g408
g7
Ntp485
Rp486
(dp487
g11
g41
sg15
g14
sg30
L0L
sg19
S'\x89\x10\xc3'
p488
sg21
L64880L
sg22
Nsg23
L4L
sg24
(lp489
sg18
L64878L
sbag5
(g408
g7
Ntp490
Rp491
(dp492
g11
g27
sg15
g17
sg30
L0L
sg19
S'\x89;[^_\xc3'
p493
sg21
L65189L
sg22
Nsg23
L16L
sg24
(lp494
g27
ag17
ag113
asg18
L65184L
sbag5
(g408
g7
Ntp495
Rp496
(dp497
g11
g41
sg15
g17
sg30
L0L
sg19
S'\x89\x13[^\xc3'
p498
sg21
L64969L
sg22
Nsg23
L12L
sg24
(lp499
g17
ag113
asg18
L64965L
sbag5
(g408
g7
Ntp500
Rp501
(dp502
g11
g113
sg15
g17
sg30
L0L
sg19
S'\x8931\xc0[^\xc3'
p503
sg21
L48190L
sg22
Nsg23
L12L
sg24
(lp504
g14
ag17
ag113
asg18
L48184L
sbag5
(g408
g7
Ntp505
Rp506
(dp507
g11
g39
sg15
g41
sg30
L4L
sg19
S'\x89J\x04\xc3'
p508
sg21
L65011L
sg22
Nsg23
L4L
sg24
(lp509
sg18
L65008L
sbag5
(g408
g7
Ntp510
Rp511
(dp512
g11
g39
sg15
g41
sg30
L4L
sg19
S'\x8bB\x04\x89J\x04\xc3'
p513
sg21
L65011L
sg22
Nsg23
L4L
sg24
(lp514
g14
asg18
L65005L
sbag5
(g408
g7
Ntp515
Rp516
(dp517
g11
g39
sg15
g41
sg30
L4L
sg19
S'\x08\x8d\x80`\x13\x00\x00\x85\xd2\x0fD\xd0\x8bB\x04\x89J\x04\xc3'
p518
sg21
L65011L
sg22
Nsg23
L4L
sg24
(lp519
g14
asg18
L64993L
sbag5
(g408
g7
Ntp520
Rp521
(dp522
g11
g14
sg15
g17
sg30
L1L
sg19
S'\x08\x85\x02B\r\x05C\x87\x03\x86\x04\x83\x05\x03s\x03\n\xc3'
p523
sg21
L118480L
sg22
Nsg23
L4L
sg24
(lp524
g14
ag17
asg18
L118463L
sbag5
(g408
g7
Ntp525
Rp526
(dp527
g11
g39
sg15
g41
sg30
L4L
sg19
S'\x85\xd2\x0fD\xd0\x8bB\x04\x89J\x04\xc3'
p528
sg21
L65011L
sg22
Nsg23
L4L
sg24
(lp529
g14
asg18
L65000L
sbag5
(g408
g7
Ntp530
Rp531
(dp532
g11
g14
sg15
g17
sg30
L0L
sg19
S'\x87\x03\x86\x04\x83\x05\x03s\x03\n\xc3'
p533
sg21
L118480L
sg22
Nsg23
L4L
sg24
(lp534
g14
asg18
L118470L
sbasg1
(I3
tp535
Rp536
(lp537
g5
(cropd.Gadget
BinOp_Gadget
p538
g7
Ntp539
Rp540
(dp541
g172
g14
sg19
S'\x00\x00\x00\x00\xb8\x01\x00\x00\x00\xc3'
p542
sg21
L81725L
sg22
NsS'src2'
p543
g14
sg23
L4L
sS'src1'
p544
g14
sg24
(lp545
g14
asg18
L81716L
sg31
g32
(I4
tp546
Rp547
sbag5
(g538
g7
Ntp548
Rp549
(dp550
g172
g14
sg19
S'\x00\x00\xb8\x01\x00\x00\x00\xc3'
p551
sg21
L81725L
sg22
Nsg543
g14
sg23
L4L
sg544
g14
sg24
(lp552
g14
asg18
L81718L
sg31
g547
sbag5
(g538
g7
Ntp553
Rp554
(dp555
g172
g14
sg19
g551
sg21
L81725L
sg22
Nsg543
g29
sg23
L4L
sg544
g14
sg24
g552
sg18
L81718L
sg31
g547
sbag5
(g538
g7
Ntp556
Rp557
(dp558
g172
g14
sg19
g551
sg21
L81725L
sg22
Nsg543
g113
sg23
L4L
sg544
g14
sg24
g552
sg18
L81718L
sg31
g547
sbag5
(g538
g7
Ntp559
Rp560
(dp561
g172
g14
sg19
g551
sg21
L81725L
sg22
Nsg543
g39
sg23
L4L
sg544
g14
sg24
g552
sg18
L81718L
sg31
g547
sbag5
(g538
g7
Ntp562
Rp563
(dp564
g172
g14
sg19
S'&\x00\x00\x00\x00\xb8\x01\x00\x00\x00\xc3'
p565
sg21
L81725L
sg22
Nsg543
g14
sg23
L4L
sg544
g14
sg24
(lp566
g14
asg18
L81715L
sg31
g547
sbag5
(g538
g7
Ntp567
Rp568
(dp569
g172
g14
sg19
g565
sg21
L81725L
sg22
Nsg543
g39
sg23
L4L
sg544
g14
sg24
g566
sg18
L81715L
sg31
g547
sbag5
(g538
g7
Ntp570
Rp571
(dp572
g172
g39
sg19
S'\x01\xe9=\xb1\xff\xff\x90\x8dt&\x00\xb8\xff\xff\xff\xff\xc3'
p573
sg21
L38893L
sg22
Nsg543
g39
sg23
L4L
sg544
g29
sg24
(lp574
g14
ag39
asg18
L38877L
sg31
g34
sbag5
(g538
g7
Ntp575
Rp576
(dp577
g172
g39
sg19
S'\x01\xe9\xbd\xb0\xff\xff\x90\x8dt&\x00\xb8\xff\xff\xff\xff\xc3'
p578
sg21
L39021L
sg22
Nsg543
g39
sg23
L4L
sg544
g29
sg24
(lp579
g14
ag29
ag39
asg18
L39005L
sg31
g34
sbag5
(g538
g7
Ntp580
Rp581
(dp582
g172
g39
sg19
S'\x01\xe9\xbd\xb1\xff\xff\x90\x8dt&\x00\xb8\xff\xff\xff\xff\xc3'
p583
sg21
L38765L
sg22
Nsg543
g39
sg23
L4L
sg544
g29
sg24
(lp584
g14
ag29
ag39
asg18
L38749L
sg31
g34
sbag5
(g538
g7
Ntp585
Rp586
(dp587
g172
g39
sg19
S'\x035\x02\n\x0e\x14A\xc3'
p588
sg21
L130252L
sg22
Nsg543
g39
sg23
L4L
sg544
g12
(I8
tp589
Rp590
sg24
(lp591
g113
ag39
asg18
L130245L
sg31
g147
sbag5
(g538
g7
Ntp592
Rp593
(dp594
g172
g14
sg19
S'\xf7\xfe\xff\x83\xc4\x14[^\xc3'
p595
sg21
L76164L
sg22
Nsg543
g113
sg23
L4L
sg544
g14
sg24
(lp596
g14
ag41
asg18
L76156L
sg31
g547
sbag5
(g538
g7
Ntp597
Rp598
(dp599
g172
g14
sg19
S'\x8d\xb4&\x00\x00\x00\x00\xb8\x01\x00\x00\x00\xc3'
p600
sg21
L81725L
sg22
Nsg543
g14
sg23
L4L
sg544
g14
sg24
(lp601
g14
asg18
L81713L
sg31
g547
sbag5
(g538
g7
Ntp602
Rp603
(dp604
g172
g14
sg19
g600
sg21
L81725L
sg22
Nsg543
g113
sg23
L4L
sg544
g14
sg24
g601
sg18
L81713L
sg31
g547
sbag5
(g538
g7
Ntp605
Rp606
(dp607
g172
g14
sg19
g600
sg21
L81725L
sg22
Nsg543
g39
sg23
L4L
sg544
g14
sg24
g601
sg18
L81713L
sg31
g547
sbag5
(g538
g7
Ntp608
Rp609
(dp610
g172
g14
sg19
S'\xb4&\x00\x00\x00\x00\xb8\x01\x00\x00\x00\xc3'
p611
sg21
L81725L
sg22
Nsg543
g14
sg23
L4L
sg544
g14
sg24
(lp612
g14
asg18
L81714L
sg31
g547
sbag5
(g538
g7
Ntp613
Rp614
(dp615
g172
g14
sg19
g611
sg21
L81725L
sg22
Nsg543
g27
sg23
L4L
sg544
g14
sg24
g612
sg18
L81714L
sg31
g547
sbag5
(g538
g7
Ntp616
Rp617
(dp618
g172
g14
sg19
g611
sg21
L81725L
sg22
Nsg543
g17
sg23
L4L
sg544
g14
sg24
g612
sg18
L81714L
sg31
g547
sbag5
(g538
g7
Ntp619
Rp620
(dp621
g172
g14
sg19
S'\xb8\x01\x00\x00\x00\x83\xc4\x04[^\xc3'
p622
sg21
L45258L
sg22
Nsg543
g14
sg23
L16L
sg544
g14
sg24
(lp623
g14
ag17
ag113
asg18
L45248L
sg31
g547
sbag5
(g538
g7
Ntp624
Rp625
(dp626
g172
g14
sg19
g622
sg21
L45258L
sg22
Nsg543
g41
sg23
L16L
sg544
g14
sg24
g623
sg18
L45248L
sg31
g547
sbag5
(g538
g7
Ntp627
Rp628
(dp629
g172
g14
sg19
g622
sg21
L45258L
sg22
Nsg543
g113
sg23
L16L
sg544
g14
sg24
g623
sg18
L45248L
sg31
g547
sbag5
(g538
g7
Ntp630
Rp631
(dp632
g172
g14
sg19
g622
sg21
L45258L
sg22
Nsg543
g39
sg23
L16L
sg544
g14
sg24
g623
sg18
L45248L
sg31
g547
sbag5
(g538
g7
Ntp633
Rp634
(dp635
g172
g14
sg19
S'\xb8\x01\x00\x00\x00[^\xc3'
p636
sg21
L48199L
sg22
Nsg543
g14
sg23
L12L
sg544
g14
sg24
(lp637
g14
ag17
ag113
asg18
L48192L
sg31
g547
sbag5
(g538
g7
Ntp638
Rp639
(dp640
g172
g14
sg19
S'\xb8\x01\x00\x00\x00^_]\xc3'
p641
sg21
L81304L
sg22
Nsg543
g14
sg23
L16L
sg544
g14
sg24
(lp642
g27
ag14
ag29
ag113
asg18
L81296L
sg31
g547
sbag5
(g538
g7
Ntp643
Rp644
(dp645
g172
g14
sg19
g641
sg21
L81304L
sg22
Nsg543
g41
sg23
L16L
sg544
g14
sg24
g642
sg18
L81296L
sg31
g547
sbag5
(g538
g7
Ntp646
Rp647
(dp648
g172
g14
sg19
S'\xb8\x01\x00\x00\x00^_\xc3'
p649
sg21
L30309L
sg22
Nsg543
g14
sg23
L12L
sg544
g14
sg24
(lp650
g27
ag14
ag113
asg18
L30302L
sg31
g547
sbag5
(g538
g7
Ntp651
Rp652
(dp653
g172
g14
sg19
g649
sg21
L30309L
sg22
Nsg543
g41
sg23
L12L
sg544
g14
sg24
g650
sg18
L30302L
sg31
g547
sbag5
(g538
g7
Ntp654
Rp655
(dp656
g172
g14
sg19
S'\xb8\x01\x00\x00\x00\xc3'
p657
sg21
L38773L
sg22
Nsg543
g14
sg23
L4L
sg544
g14
sg24
(lp658
g14
asg18
L38768L
sg31
g547
sbag5
(g538
g7
Ntp659
Rp660
(dp661
g172
g14
sg19
g657
sg21
L38773L
sg22
Nsg543
g41
sg23
L4L
sg544
g14
sg24
g658
sg18
L38768L
sg31
g547
sbag5
(g538
g7
Ntp662
Rp663
(dp664
g172
g14
sg19
g657
sg21
L38773L
sg22
Nsg543
g17
sg23
L4L
sg544
g14
sg24
g658
sg18
L38768L
sg31
g547
sbag5
(g538
g7
Ntp665
Rp666
(dp667
g172
g14
sg19
g657
sg21
L38773L
sg22
Nsg543
g39
sg23
L4L
sg544
g14
sg24
g658
sg18
L38768L
sg31
g547
sbag5
(g538
g7
Ntp668
Rp669
(dp670
g172
g14
sg19
S'\xba\x01\x00\x00\x00\x83\xc4\x08\x89\xd0[\xc3'
p671
sg21
L81965L
sg22
Nsg543
g14
sg23
L16L
sg544
g14
sg24
(lp672
g14
ag41
ag17
asg18
L81954L
sg31
g547
sbag5
(g538
g7
Ntp673
Rp674
(dp675
g172
g14
sg19
g671
sg21
L81965L
sg22
Nsg543
g41
sg23
L16L
sg544
g14
sg24
g672
sg18
L81954L
sg31
g547
sbag5
(g538
g7
Ntp676
Rp677
(dp678
g172
g14
sg19
S'\x90\xb8\x01\x00\x00\x00[^\xc3'
p679
sg21
L48199L
sg22
Nsg543
g14
sg23
L12L
sg544
g14
sg24
(lp680
g14
ag17
ag113
asg18
L48191L
sg31
g547
sbag5
(g538
g7
Ntp681
Rp682
(dp683
g172
g14
sg19
g679
sg21
L48199L
sg22
Nsg543
g17
sg23
L12L
sg544
g14
sg24
g680
sg18
L48191L
sg31
g547
sbag5
(g538
g7
Ntp684
Rp685
(dp686
g172
g14
sg19
S'\x90\xb8\x01\x00\x00\x00\xc3'
p687
sg21
L38773L
sg22
Nsg543
g14
sg23
L4L
sg544
g14
sg24
(lp688
g14
asg18
L38767L
sg31
g547
sbag5
(g538
g7
Ntp689
Rp690
(dp691
g172
g14
sg19
g687
sg21
L38773L
sg22
Nsg543
g27
sg23
L4L
sg544
g14
sg24
g688
sg18
L38767L
sg31
g547
sbag5
(g538
g7
Ntp692
Rp693
(dp694
g172
g14
sg19
S'\x90[\xb8\x01\x00\x00\x00^_\xc3'
p695
sg21
L47528L
sg22
Nsg543
g14
sg23
L16L
sg544
g14
sg24
(lp696
g27
ag14
ag17
ag113
asg18
L47519L
sg31
g547
sbag5
(g538
g7
Ntp697
Rp698
(dp699
g172
g14
sg19
S'\x0c[\xb8\x01\x00\x00\x00^_]\xc3'
p700
sg21
L81304L
sg22
Nsg543
g14
sg23
L16L
sg544
g14
sg24
(lp701
g27
ag14
ag29
ag113
asg18
L81294L
sg31
g547
sbag5
(g538
g7
Ntp702
Rp703
(dp704
g172
g14
sg19
g700
sg21
L81304L
sg22
Nsg543
g29
sg23
L16L
sg544
g14
sg24
g701
sg18
L81294L
sg31
g547
sbag5
(g538
g7
Ntp705
Rp706
(dp707
g172
g14
sg19
g700
sg21
L81304L
sg22
Nsg543
g17
sg23
L16L
sg544
g14
sg24
g701
sg18
L81294L
sg31
g547
sbag5
(g538
g7
Ntp708
Rp709
(dp710
g172
g14
sg19
g700
sg21
L81304L
sg22
Nsg543
g113
sg23
L16L
sg544
g14
sg24
g701
sg18
L81294L
sg31
g547
sbag5
(g538
g7
Ntp711
Rp712
(dp713
g172
g14
sg19
g700
sg21
L81304L
sg22
Nsg543
g39
sg23
L16L
sg544
g14
sg24
g701
sg18
L81294L
sg31
g547
sbag5
(g538
g7
Ntp714
Rp715
(dp716
g172
g41
sg19
S'\t\xc2\x0f\x94\xc0\xc3'
p717
sg21
L16131L
sg22
Nsg543
g41
sg23
L4L
sg544
g14
sg24
(lp718
g14
ag41
asg18
L16126L
sg31
g147
sbag5
(g538
g7
Ntp719
Rp720
(dp721
g172
g14
sg19
S'[\xb8\x01\x00\x00\x00^_]\xc3'
p722
sg21
L81304L
sg22
Nsg543
g14
sg23
L20L
sg544
g14
sg24
(lp723
g27
ag14
ag29
ag17
ag113
asg18
L81295L
sg31
g547
sbag5
(g538
g7
Ntp724
Rp725
(dp726
g172
g14
sg19
S'[\xb8\x01\x00\x00\x00^_\xc3'
p727
sg21
L30309L
sg22
Nsg543
g14
sg23
L16L
sg544
g14
sg24
(lp728
g27
ag14
ag17
ag113
asg18
L30301L
sg31
g547
sbag5
(g538
g7
Ntp729
Rp730
(dp731
g172
g14
sg19
g727
sg21
L30309L
sg22
Nsg543
g29
sg23
L16L
sg544
g14
sg24
g728
sg18
L30301L
sg31
g547
sbag5
(g538
g7
Ntp732
Rp733
(dp734
g172
g14
sg19
g727
sg21
L30309L
sg22
Nsg543
g39
sg23
L16L
sg544
g14
sg24
g728
sg18
L30301L
sg31
g547
sbag5
(g538
g7
Ntp735
Rp736
(dp737
g172
g41
sg19
S'[^\t\xc2\x0f\x94\xc0\xc3'
p738
sg21
L16131L
sg22
Nsg543
g41
sg23
L12L
sg544
g14
sg24
(lp739
g14
ag41
ag17
ag113
asg18
L16124L
sg31
g147
sbag5
(g538
g7
Ntp740
Rp741
(dp742
g172
g41
sg19
S'^\t\xc2\x0f\x94\xc0\xc3'
p743
sg21
L16131L
sg22
Nsg543
g41
sg23
L8L
sg544
g14
sg24
(lp744
g14
ag41
ag113
asg18
L16125L
sg31
g147
sbag5
(g538
g7
Ntp745
Rp746
(dp747
g172
g14
sg19
S'\x19~\x13[\xb8\x01\x00\x00\x00^_\xc3'
p748
sg21
L30309L
sg22
Nsg543
g14
sg23
L16L
sg544
g14
sg24
(lp749
g27
ag14
ag17
ag113
asg18
L30298L
sg31
g547
sbag5
(g538
g7
Ntp750
Rp751
(dp752
g172
g14
sg19
g748
sg21
L30309L
sg22
Nsg543
g17
sg23
L16L
sg544
g14
sg24
g749
sg18
L30298L
sg31
g547
sbag5
(g538
g7
Ntp753
Rp754
(dp755
g172
g41
sg19
S'3\xd1\x00\x00\x83\xc4\x08[\xc3'
p756
sg21
L89815L
sg22
Nsg543
g39
sg23
L16L
sg544
g41
sg24
(lp757
g41
ag17
asg18
L89807L
sg31
g164
sbag5
(g538
g7
Ntp758
Rp759
(dp760
g172
g41
sg19
S'1\xf2\x89\x13[^\xc3'
p761
sg21
L64969L
sg22
Nsg543
g113
sg23
L12L
sg544
g41
sg24
(lp762
g41
ag17
ag113
asg18
L64963L
sg31
g164
sbasg1
(I4
tp763
Rp764
(lp765
g5
(cropd.Gadget
ReadMem_Gadget
p766
g7
Ntp767
Rp768
(dp769
g172
g14
sg15
g41
sg30
L4L
sg19
g412
sg21
L65011L
sg22
Nsg23
L4L
sg24
g413
sg18
L64997L
sbag5
(g766
g7
Ntp770
Rp771
(dp772
g172
g14
sg15
g14
sg30
L0L
sg19
S'\x00\x00\x85\xc0\x0fD\xc2\x8b\x00\xc3'
p773
sg21
L64844L
sg22
Nsg23
L4L
sg24
(lp774
g14
asg18
L64835L
sbag5
(g766
g7
Ntp775
Rp776
(dp777
g172
g14
sg15
g41
sg30
L4L
sg19
g417
sg21
L65011L
sg22
Nsg23
L4L
sg24
g418
sg18
L64998L
sbag5
(g766
g7
Ntp778
Rp779
(dp780
g172
g14
sg15
g41
sg30
L4L
sg19
g422
sg21
L65011L
sg22
Nsg23
L4L
sg24
g423
sg18
L64999L
sbag5
(g766
g7
Ntp781
Rp782
(dp783
g172
g14
sg15
g14
sg30
L0L
sg19
S'\x00\x85\xc0\x0fD\xc2\x8b\x00\xc3'
p784
sg21
L64844L
sg22
Nsg23
L4L
sg24
(lp785
g14
asg18
L64836L
sbag5
(g766
g7
Ntp786
Rp787
(dp788
g172
g14
sg15
g14
sg30
L4294967136L
sg19
S'$\x04\x8b@\x08\xc3'
p789
sg21
L48519L
sg22
Nsg23
L4L
sg24
(lp790
g14
asg18
L48514L
sbag5
(g766
g7
Ntp791
Rp792
(dp793
g172
g14
sg15
g41
sg30
L4L
sg19
g440
sg21
L65011L
sg22
Nsg23
L4L
sg24
g441
sg18
L64995L
sbag5
(g766
g7
Ntp794
Rp795
(dp796
g172
g14
sg15
g41
sg30
L4L
sg19
g445
sg21
L65011L
sg22
Nsg23
L4L
sg24
g446
sg18
L65002L
sbag5
(g766
g7
Ntp797
Rp798
(dp799
g172
g14
sg15
g41
sg30
L4L
sg19
g460
sg21
L65011L
sg22
Nsg23
L4L
sg24
g461
sg18
L64994L
sbag5
(g766
g7
Ntp800
Rp801
(dp802
g172
g14
sg15
g14
sg30
L0L
sg19
S'\x8d\x92`\x13\x00\x00\x85\xc0\x0fD\xc2\x8b\x00\xc3'
p803
sg21
L64844L
sg22
Nsg23
L4L
sg24
(lp804
g14
ag41
asg18
L64831L
sbag5
(g766
g7
Ntp805
Rp806
(dp807
g172
g14
sg15
g14
sg30
L16L
sg19
S'\x8b@\x10\xc3'
p808
sg21
L48551L
sg22
Nsg23
L4L
sg24
(lp809
g14
asg18
L48548L
sbag5
(g766
g7
Ntp810
Rp811
(dp812
g172
g14
sg15
g14
sg30
L12L
sg19
S'\x8b@\x0c\xc3'
p813
sg21
L48535L
sg22
Nsg23
L4L
sg24
(lp814
g14
asg18
L48532L
sbag5
(g766
g7
Ntp815
Rp816
(dp817
g172
g14
sg15
g14
sg30
L8L
sg19
S'\x8b@\x08\xc3'
p818
sg21
L48519L
sg22
Nsg23
L4L
sg24
(lp819
g14
asg18
L48516L
sbag5
(g766
g7
Ntp820
Rp821
(dp822
g172
g14
sg15
g14
sg30
L0L
sg19
S'\x8b\x00\x83\xc4\x04[^\xc3'
p823
sg21
L49260L
sg22
Nsg23
L16L
sg24
(lp824
g14
ag17
ag113
asg18
L49253L
sbag5
(g766
g7
Ntp825
Rp826
(dp827
g172
g14
sg15
g14
sg30
L0L
sg19
S'\x8b\x00\xc3'
p828
sg21
L64844L
sg22
Nsg23
L4L
sg24
(lp829
g14
asg18
L64842L
sbag5
(g766
g7
Ntp830
Rp831
(dp832
g172
g14
sg15
g17
sg30
L0L
sg19
S'\x8b\x03[^_\xc3'
p833
sg21
L49077L
sg22
Nsg23
L16L
sg24
(lp834
g27
ag14
ag17
ag113
asg18
L49072L
sbag5
(g766
g7
Ntp835
Rp836
(dp837
g172
g14
sg15
g41
sg30
L4L
sg19
g513
sg21
L65011L
sg22
Nsg23
L4L
sg24
g514
sg18
L65005L
sbag5
(g766
g7
Ntp838
Rp839
(dp840
g172
g41
sg15
g113
sg30
L0L
sg19
S'\x8b\x16\x83\xc4\x04[^\x8d\x04\xc2\xc3'
p841
sg21
L47739L
sg22
Nsg23
L16L
sg24
(lp842
g14
ag41
ag17
ag113
asg18
L47729L
sbag5
(g766
g7
Ntp843
Rp844
(dp845
g172
g14
sg15
g17
sg30
L0L
sg19
S'\x90\x8b\x03[^_\xc3'
p846
sg21
L49077L
sg22
Nsg23
L16L
sg24
(lp847
g27
ag14
ag17
ag113
asg18
L49071L
sbag5
(g766
g7
Ntp848
Rp849
(dp850
g172
g14
sg15
g41
sg30
L4L
sg19
g518
sg21
L65011L
sg22
Nsg23
L4L
sg24
g519
sg18
L64993L
sbag5
(g766
g7
Ntp851
Rp852
(dp853
g172
g14
sg15
g14
sg30
L0L
sg19
S'\x85\xc0\x0fD\xc2\x8b\x00\xc3'
p854
sg21
L64844L
sg22
Nsg23
L4L
sg24
(lp855
g14
asg18
L64837L
sbag5
(g766
g7
Ntp856
Rp857
(dp858
g172
g14
sg15
g41
sg30
L4L
sg19
g528
sg21
L65011L
sg22
Nsg23
L4L
sg24
g529
sg18
L65000L
sbasg1
(I8
tp859
Rp860
(lp861
g5
(cropd.Gadget
Lahf_Gadget
p862
g7
Ntp863
Rp864
(dp865
g19
g513
sg22
Nsg21
L65011L
sg23
L4L
sg24
g514
sg18
L65005L
sbag5
(g862
g7
Ntp866
Rp867
(dp868
g19
S'\x8bD$\x04\x8b@\x10\xc3'
p869
sg22
Nsg21
L48551L
sg23
L4L
sg24
(lp870
g14
asg18
L48544L
sbag5
(g862
g7
Ntp871
Rp872
(dp873
g19
S'\x8bD$\x04\x8b@\x08\xc3'
p874
sg22
Nsg21
L48519L
sg23
L4L
sg24
(lp875
g14
asg18
L48512L
sbag5
(g862
g7
Ntp876
Rp877
(dp878
g19
S'4$\xc3'
p879
sg22
Nsg21
L43321L
sg23
L4L
sg24
(lp880
g14
asg18
L43319L
sbasg1
(I2
tp881
Rp882
(lp883
g5
(cropd.Gadget
CopyReg_Gadget
p884
g7
Ntp885
Rp886
(dp887
g11
g41
sg172
g14
sg19
S'\x00\x00\x83\xc4\x08\x89\xd0[\xc3'
p888
sg21
L81965L
sg22
Nsg23
L16L
sg24
(lp889
g14
ag17
asg18
L81957L
sbag5
(g884
g7
Ntp890
Rp891
(dp892
g11
g41
sg172
g14
sg19
S'\x01\x00\x00\x00\x83\xc4\x08\x89\xd0[\xc3'
p893
sg21
L81965L
sg22
Nsg23
L16L
sg24
(lp894
g14
ag17
asg18
L81955L
sbag5
(g884
g7
Ntp895
Rp896
(dp897
g11
g41
sg172
g14
sg19
S'\x83\xc4\x04\x89\xd0[^\xc3'
p898
sg21
L45168L
sg22
Nsg23
L16L
sg24
(lp899
g14
ag17
ag113
asg18
L45161L
sbag5
(g884
g7
Ntp900
Rp901
(dp902
g11
g41
sg172
g14
sg19
S'\x83\xc4\x08\x89\xd0[\xc3'
p903
sg21
L81965L
sg22
Nsg23
L16L
sg24
(lp904
g14
ag17
asg18
L81959L
sbag5
(g884
g7
Ntp905
Rp906
(dp907
g11
g41
sg172
g14
sg19
S'$\x08\x89\xd0\xc3'
p908
sg21
L47679L
sg22
Nsg23
L4L
sg24
(lp909
g14
asg18
L47675L
sbag5
(g884
g7
Ntp910
Rp911
(dp912
g11
g41
sg172
g14
sg19
S'\x83|o\xff\xff[^_\x0fE\xc2\xc3'
p913
sg21
L59977L
sg22
Nsg23
L16L
sg24
(lp914
g27
ag14
ag17
ag113
asg18
L59966L
sbag5
(g884
g7
Ntp915
Rp916
(dp917
g11
g41
sg172
g14
sg19
S'\x83\xff\t[\x0fE\xc2^_\xc3'
p918
sg21
L59918L
sg22
Nsg23
L16L
sg24
(lp919
g27
ag14
ag17
ag113
asg18
L59909L
sbag5
(g884
g7
Ntp920
Rp921
(dp922
g11
g41
sg172
g14
sg19
S'\xff\t[\x0fE\xc2^_\xc3'
p923
sg21
L59918L
sg22
Nsg23
L16L
sg24
(lp924
g27
ag14
ag17
ag113
asg18
L59910L
sbag5
(g884
g7
Ntp925
Rp926
(dp927
g11
g41
sg172
g14
sg19
S'\x8d\x83|o\xff\xff[^_\x0fE\xc2\xc3'
p928
sg21
L59977L
sg22
Nsg23
L16L
sg24
(lp929
g27
ag14
ag17
ag113
asg18
L59965L
sbag5
(g884
g7
Ntp930
Rp931
(dp932
g11
g41
sg172
g14
sg19
S'\x8d\x83to\xff\xff[^_\x0fE\xc2\xc3'
p933
sg21
L59873L
sg22
Nsg23
L16L
sg24
(lp934
g27
ag14
ag17
ag113
asg18
L59861L
sbag5
(g884
g7
Ntp935
Rp936
(dp937
g11
g41
sg172
g14
sg19
S'\x89\xd0[^\xc3'
p938
sg21
L45168L
sg22
Nsg23
L12L
sg24
(lp939
g14
ag17
ag113
asg18
L45164L
sbag5
(g884
g7
Ntp940
Rp941
(dp942
g11
g41
sg172
g14
sg19
S'\x89\xd0[\xc3'
p943
sg21
L81965L
sg22
Nsg23
L8L
sg24
(lp944
g14
ag17
asg18
L81962L
sbag5
(g884
g7
Ntp945
Rp946
(dp947
g11
g41
sg172
g14
sg19
S'\x89\xd0\xc3'
p948
sg21
L47679L
sg22
Nsg23
L4L
sg24
(lp949
g14
asg18
L47677L
sbag5
(g884
g7
Ntp950
Rp951
(dp952
g11
g41
sg172
g14
sg19
S'\x89\xd7\x89\xf8[^_\xc3'
p953
sg21
L44887L
sg22
Nsg23
L16L
sg24
(lp954
g27
ag14
ag17
ag113
asg18
L44880L
sbag5
(g884
g7
Ntp955
Rp956
(dp957
g11
g41
sg172
g14
sg19
S'\xef\x83\xc4\x04\x89\xd0[^\xc3'
p958
sg21
L45168L
sg22
Nsg23
L16L
sg24
(lp959
g14
ag17
ag113
asg18
L45160L
sbag5
(g884
g7
Ntp960
Rp961
(dp962
g11
g41
sg172
g14
sg19
S'^_\x0fE\xc2\xc3'
p963
sg21
L59873L
sg22
Nsg23
L12L
sg24
(lp964
g27
ag14
ag113
asg18
L59868L
sbag5
(g884
g7
Ntp965
Rp966
(dp967
g11
g41
sg172
g14
sg19
S'\x83to\xff\xff[^_\x0fE\xc2\xc3'
p968
sg21
L59873L
sg22
Nsg23
L16L
sg24
(lp969
g27
ag14
ag17
ag113
asg18
L59862L
sbasg1
(I9
tp970
Rp971
(lp972
sg1
(I1
tp973
Rp974
(lp975
g5
(cropd.Gadget
LoadConst_Gadget
p976
g7
Ntp977
Rp978
(dp979
S'register'
p980
g17
sg19
S'?\x83\xc4\x18[\xc3'
p981
sg21
L17041L
sg30
I24
sg22
Nsg23
L32L
sg24
(lp982
g14
ag17
asg18
L17036L
sbag5
(g976
g7
Ntp983
Rp984
(dp985
g980
g27
sg19
S'\x14[^_]\xc3'
p986
sg21
L85473L
sg30
I4
sg22
Nsg23
L16L
sg24
(lp987
g27
ag14
ag29
ag113
asg18
L85468L
sbag5
(g976
g7
Ntp988
Rp989
(dp990
g980
g29
sg19
g986
sg21
L85473L
sg30
I8
sg22
Nsg23
L16L
sg24
g987
sg18
L85468L
sbag5
(g976
g7
Ntp991
Rp992
(dp993
g980
g113
sg19
g986
sg21
L85473L
sg30
I0
sg22
Nsg23
L16L
sg24
g987
sg18
L85468L
sbag5
(g976
g7
Ntp994
Rp995
(dp996
g980
g113
sg19
S'\x14[^\xc3'
p997
sg21
L21031L
sg30
I0
sg22
Nsg23
L8L
sg24
(lp998
g14
ag113
asg18
L21028L
sbag5
(g976
g7
Ntp999
Rp1000
(dp1001
g980
g27
sg19
S'\x12\x00\x00[^_]\xc3'
p1002
sg21
L26415L
sg30
I0
sg22
Nsg23
L12L
sg24
(lp1003
g27
ag14
ag29
asg18
L26408L
sbag5
(g976
g7
Ntp1004
Rp1005
(dp1006
g980
g29
sg19
g1002
sg21
L26415L
sg30
I4
sg22
Nsg23
L12L
sg24
g1003
sg18
L26408L
sbag5
(g976
g7
Ntp1007
Rp1008
(dp1009
g980
g113
sg19
S'\x12\x84\xd2\xb8\x01\x00\x00\x00t\t[^\xc3'
p1010
sg21
L20353L
sg30
I0
sg22
Nsg23
L8L
sg24
(lp1011
g14
ag113
asg18
L20341L
sbag5
(g976
g7
Ntp1012
Rp1013
(dp1014
g980
g17
sg19
S'\x10\xb8\x01\x00\x00\x00\x83\xc4\x04[^\xc3'
p1015
sg21
L45258L
sg30
I4
sg22
Nsg23
L16L
sg24
(lp1016
g17
ag113
asg18
L45247L
sbag5
(g976
g7
Ntp1017
Rp1018
(dp1019
g980
g113
sg19
g1015
sg21
L45258L
sg30
I8
sg22
Nsg23
L16L
sg24
g1016
sg18
L45247L
sbag5
(g976
g7
Ntp1020
Rp1021
(dp1022
g980
g17
sg19
S'\x10\xb8\xff\xff\xff\xff[^\xc3'
p1023
sg21
L39671L
sg30
I0
sg22
Nsg23
L12L
sg24
(lp1024
g17
ag113
asg18
L39663L
sbag5
(g976
g7
Ntp1025
Rp1026
(dp1027
g980
g113
sg19
g1023
sg21
L39671L
sg30
I4
sg22
Nsg23
L12L
sg24
g1024
sg18
L39663L
sbag5
(g976
g7
Ntp1028
Rp1029
(dp1030
g980
g27
sg19
S'\x10\x00\x00\x00\x00[^_\xc3'
p1031
sg21
L50077L
sg30
I0
sg22
Nsg23
L8L
sg24
(lp1032
g27
asg18
L50069L
sbag5
(g976
g7
Ntp1033
Rp1034
(dp1035
g980
g27
sg19
S'\x10\x85\xc0uK[^_\xc3'
p1036
sg21
L44658L
sg30
I4
sg22
Nsg23
L12L
sg24
(lp1037
g27
ag113
asg18
L44650L
sbag5
(g976
g7
Ntp1038
Rp1039
(dp1040
g980
g113
sg19
g1036
sg21
L44658L
sg30
I0
sg22
Nsg23
L12L
sg24
g1037
sg18
L44650L
sbag5
(g976
g7
Ntp1041
Rp1042
(dp1043
g980
g17
sg19
S'\x10\x85\xc0u\x04\x85\xf6u\x1f\x83\xc4\x04[^\xc3'
p1044
sg21
L76346L
sg30
I4
sg22
Nsg23
L16L
sg24
(lp1045
g14
ag41
ag17
ag113
asg18
L76332L
sbag5
(g976
g7
Ntp1046
Rp1047
(dp1048
g980
g113
sg19
g1044
sg21
L76346L
sg30
I8
sg22
Nsg23
L16L
sg24
g1045
sg18
L76332L
sbag5
(g976
g7
Ntp1049
Rp1050
(dp1051
g980
g17
sg19
S'\x10\x85\xc0u\x04\x85\xf6u\x06\x83\xc4\x04[^\xc3'
p1052
sg21
L76218L
sg30
I4
sg22
Nsg23
L16L
sg24
(lp1053
g14
ag17
ag113
asg18
L76204L
sbag5
(g976
g7
Ntp1054
Rp1055
(dp1056
g980
g113
sg19
g1052
sg21
L76218L
sg30
I8
sg22
Nsg23
L16L
sg24
g1053
sg18
L76204L
sbag5
(g976
g7
Ntp1057
Rp1058
(dp1059
g980
g27
sg19
S'\x10\x83\xc4\x0c[^_]\xc3'
p1060
sg21
L21474L
sg30
I0
sg22
Nsg23
L12L
sg24
(lp1061
g27
ag29
asg18
L21466L
sbag5
(g976
g7
Ntp1062
Rp1063
(dp1064
g980
g29
sg19
g1060
sg21
L21474L
sg30
I4
sg22
Nsg23
L12L
sg24
g1061
sg18
L21466L
sbag5
(g976
g7
Ntp1065
Rp1066
(dp1067
g980
g27
sg19
S'\x10\x83\xc4\x1c[^_]\xc3'
p1068
sg21
L18461L
sg30
I0
sg22
Nsg23
L12L
sg24
(lp1069
g27
ag29
asg18
L18453L
sbag5
(g976
g7
Ntp1070
Rp1071
(dp1072
g980
g29
sg19
g1068
sg21
L18461L
sg30
I4
sg22
Nsg23
L12L
sg24
g1069
sg18
L18453L
sbag5
(g976
g7
Ntp1073
Rp1074
(dp1075
g980
g27
sg19
S'\x10\x83\xc4,[^_]\xc3'
p1076
sg21
L36024L
sg30
I0
sg22
Nsg23
L12L
sg24
(lp1077
g27
ag29
asg18
L36016L
sbag5
(g976
g7
Ntp1078
Rp1079
(dp1080
g980
g29
sg19
g1076
sg21
L36024L
sg30
I4
sg22
Nsg23
L12L
sg24
g1077
sg18
L36016L
sbag5
(g976
g7
Ntp1081
Rp1082
(dp1083
g980
g27
sg19
S'\x10[^_\xc3'
p1084
sg21
L18765L
sg30
I0
sg22
Nsg23
L8L
sg24
(lp1085
g27
asg18
L18761L
sbag5
(g976
g7
Ntp1086
Rp1087
(dp1088
g980
g27
sg19
S'\x10[^_\x0f\x94\xc0\xc3'
p1089
sg21
L48725L
sg30
I0
sg22
Nsg23
L8L
sg24
(lp1090
g27
ag14
asg18
L48718L
sbag5
(g976
g7
Ntp1091
Rp1092
(dp1093
g980
g17
sg19
S'\x12\x8b\x02\x85\xc0t\xf3\x83\xc4\x08[\xc3'
p1094
sg21
L49145L
sg30
I8
sg22
Nsg23
L16L
sg24
(lp1095
g17
ag39
asg18
L49134L
sbag5
(g976
g7
Ntp1096
Rp1097
(dp1098
g980
g27
sg19
S'\x11\x83\xc4\x0c[^_]\xc3'
p1099
sg21
L29430L
sg30
I0
sg22
Nsg23
L12L
sg24
(lp1100
g27
ag29
asg18
L29422L
sbag5
(g976
g7
Ntp1101
Rp1102
(dp1103
g980
g29
sg19
g1099
sg21
L29430L
sg30
I4
sg22
Nsg23
L12L
sg24
g1100
sg18
L29422L
sbag5
(g976
g7
Ntp1104
Rp1105
(dp1106
g980
g27
sg19
g20
sg21
L80582L
sg30
I0
sg22
Nsg23
L12L
sg24
g25
sg18
L80574L
sbag5
(g976
g7
Ntp1107
Rp1108
(dp1109
g980
g29
sg19
g20
sg21
L80582L
sg30
I4
sg22
Nsg23
L12L
sg24
g25
sg18
L80574L
sbag5
(g976
g7
Ntp1110
Rp1111
(dp1112
g980
g27
sg19
S'\x11\x84\xd2\xb8\x01\x00\x00\x00t\x08[^_\xc3'
p1113
sg21
L29587L
sg30
I4
sg22
Nsg23
L12L
sg24
(lp1114
g27
ag113
asg18
L29574L
sbag5
(g976
g7
Ntp1115
Rp1116
(dp1117
g980
g113
sg19
g1113
sg21
L29587L
sg30
I0
sg22
Nsg23
L12L
sg24
g1114
sg18
L29574L
sbag5
(g976
g7
Ntp1118
Rp1119
(dp1120
g980
g17
sg19
S'\x11\x84\xd2u\xe7\x89\xf0[^\xc3'
p1121
sg21
L49525L
sg30
I0
sg22
Nsg23
L12L
sg24
(lp1122
g17
ag113
asg18
L49516L
sbag5
(g976
g7
Ntp1123
Rp1124
(dp1125
g980
g113
sg19
g1121
sg21
L49525L
sg30
I4
sg22
Nsg23
L12L
sg24
g1122
sg18
L49516L
sbag5
(g976
g7
Ntp1126
Rp1127
(dp1128
g980
g27
sg19
S'\x15\x83\xc4\x0c[^_]\xc3'
p1129
sg21
L41132L
sg30
I4
sg22
Nsg23
L16L
sg24
(lp1130
g27
ag14
ag29
ag113
asg18
L41124L
sbag5
(g976
g7
Ntp1131
Rp1132
(dp1133
g980
g29
sg19
g1129
sg21
L41132L
sg30
I8
sg22
Nsg23
L16L
sg24
g1130
sg18
L41124L
sbag5
(g976
g7
Ntp1134
Rp1135
(dp1136
g980
g113
sg19
g1129
sg21
L41132L
sg30
I0
sg22
Nsg23
L16L
sg24
g1130
sg18
L41124L
sbag5
(g976
g7
Ntp1137
Rp1138
(dp1139
g980
g27
sg19
g173
sg21
L30309L
sg30
I4
sg22
Nsg23
L12L
sg24
g174
sg18
L30300L
sbag5
(g976
g7
Ntp1140
Rp1141
(dp1142
g980
g113
sg19
g173
sg21
L30309L
sg30
I0
sg22
Nsg23
L12L
sg24
g174
sg18
L30300L
sbag5
(g976
g7
Ntp1143
Rp1144
(dp1145
g980
g27
sg19
S'\x04\x00\x00[^_]\xc3'
p1146
sg21
L68032L
sg30
I0
sg22
Nsg23
L12L
sg24
(lp1147
g27
ag29
asg18
L68025L
sbag5
(g976
g7
Ntp1148
Rp1149
(dp1150
g980
g29
sg19
g1146
sg21
L68032L
sg30
I4
sg22
Nsg23
L12L
sg24
g1147
sg18
L68025L
sbag5
(g976
g7
Ntp1151
Rp1152
(dp1153
g980
g113
sg19
S'\x04[^\x8d\x04\xc2\xc3'
p1154
sg21
L47739L
sg30
I0
sg22
Nsg23
L8L
sg24
(lp1155
g14
ag113
asg18
L47733L
sbag5
(g976
g7
Ntp1156
Rp1157
(dp1158
g980
g27
sg19
S'\x04[^_\xc3'
p1159
sg21
L48715L
sg30
I4
sg22
Nsg23
L12L
sg24
(lp1160
g27
ag14
ag113
asg18
L48711L
sbag5
(g976
g7
Ntp1161
Rp1162
(dp1163
g980
g113
sg19
g1159
sg21
L48715L
sg30
I0
sg22
Nsg23
L12L
sg24
g1160
sg18
L48711L
sbag5
(g976
g7
Ntp1164
Rp1165
(dp1166
g980
g113
sg19
S'\x04[^\xc3'
p1167
sg21
L17923L
sg30
I0
sg22
Nsg23
L8L
sg24
(lp1168
g14
ag113
asg18
L17920L
sbag5
(g976
g7
Ntp1169
Rp1170
(dp1171
g980
g17
sg19
S'\x04\x85\xf6u\x06\x83\xc4\x04[^\xc3'
p1172
sg21
L76218L
sg30
I4
sg22
Nsg23
L16L
sg24
(lp1173
g14
ag41
ag17
ag113
asg18
L76208L
sbag5
(g976
g7
Ntp1174
Rp1175
(dp1176
g980
g113
sg19
g1172
sg21
L76218L
sg30
I8
sg22
Nsg23
L16L
sg24
g1173
sg18
L76208L
sbag5
(g976
g7
Ntp1177
Rp1178
(dp1179
g980
g27
sg19
S'\x02\x00\x00[^_\xc3'
p1180
sg21
L28335L
sg30
I0
sg22
Nsg23
L8L
sg24
(lp1181
g27
ag14
asg18
L28329L
sbag5
(g976
g7
Ntp1182
Rp1183
(dp1184
g980
g27
sg19
S'\x00t\x08[^_\xc3'
p1185
sg21
L29587L
sg30
I4
sg22
Nsg23
L12L
sg24
(lp1186
g27
ag113
asg18
L29581L
sbag5
(g976
g7
Ntp1187
Rp1188
(dp1189
g980
g113
sg19
g1185
sg21
L29587L
sg30
I0
sg22
Nsg23
L12L
sg24
g1186
sg18
L29581L
sbag5
(g976
g7
Ntp1190
Rp1191
(dp1192
g980
g27
sg19
S'\x00\x00\x00t\x08[^_\xc3'
p1193
sg21
L29587L
sg30
I4
sg22
Nsg23
L12L
sg24
(lp1194
g27
ag113
asg18
L29579L
sbag5
(g976
g7
Ntp1195
Rp1196
(dp1197
g980
g113
sg19
g1193
sg21
L29587L
sg30
I0
sg22
Nsg23
L12L
sg24
g1194
sg18
L29579L
sbag5
(g976
g7
Ntp1198
Rp1199
(dp1200
g980
g17
sg19
S'\x00\x00\x00\x00\x83\xc4\x04[^\xc3'
p1201
sg21
L18122L
sg30
I4
sg22
Nsg23
L16L
sg24
(lp1202
g17
ag113
asg18
L18113L
sbag5
(g976
g7
Ntp1203
Rp1204
(dp1205
g980
g113
sg19
g1201
sg21
L18122L
sg30
I8
sg22
Nsg23
L16L
sg24
g1202
sg18
L18113L
sbag5
(g976
g7
Ntp1206
Rp1207
(dp1208
g980
g27
sg19
S'\x00\x00\x00\x00[^_\xc3'
p1209
sg21
L50077L
sg30
I8
sg22
Nsg23
L16L
sg24
(lp1210
g27
ag17
ag113
asg18
L50070L
sbag5
(g976
g7
Ntp1211
Rp1212
(dp1213
g980
g17
sg19
g1209
sg21
L50077L
sg30
I0
sg22
Nsg23
L16L
sg24
g1210
sg18
L50070L
sbag5
(g976
g7
Ntp1214
Rp1215
(dp1216
g980
g113
sg19
g1209
sg21
L50077L
sg30
I4
sg22
Nsg23
L16L
sg24
g1210
sg18
L50070L
sbag5
(g976
g7
Ntp1217
Rp1218
(dp1219
g980
g17
sg19
S'\x00\x00\x00u\x13\x83\xc4\x18[\xc3'
p1220
sg21
L51365L
sg30
I24
sg22
Nsg23
L32L
sg24
(lp1221
g17
asg18
L51356L
sbag5
(g976
g7
Ntp1222
Rp1223
(dp1224
g980
g17
sg19
S'\x00\x00\x00u1\x83\xc4\x14[^\xc3'
p1225
sg21
L30814L
sg30
I20
sg22
Nsg23
L32L
sg24
(lp1226
g17
ag113
asg18
L30804L
sbag5
(g976
g7
Ntp1227
Rp1228
(dp1229
g980
g113
sg19
g1225
sg21
L30814L
sg30
I24
sg22
Nsg23
L32L
sg24
g1226
sg18
L30804L
sbag5
(g976
g7
Ntp1230
Rp1231
(dp1232
g980
g17
sg19
S'\x00\x00\x00u?\x83\xc4\x18[\xc3'
p1233
sg21
L17041L
sg30
I24
sg22
Nsg23
L32L
sg24
(lp1234
g17
asg18
L17032L
sbag5
(g976
g7
Ntp1235
Rp1236
(dp1237
g980
g17
sg19
S'\x00\x00\x00u\x06\x83\xc4\x14[^\xc3'
p1238
sg21
L47428L
sg30
I20
sg22
Nsg23
L32L
sg24
(lp1239
g17
ag113
asg18
L47418L
sbag5
(g976
g7
Ntp1240
Rp1241
(dp1242
g980
g113
sg19
g1238
sg21
L47428L
sg30
I24
sg22
Nsg23
L32L
sg24
g1239
sg18
L47418L
sbag5
(g976
g7
Ntp1243
Rp1244
(dp1245
g980
g27
sg19
S'\x00\x00\x00t\x05[^_\xc3'
p1246
sg21
L20222L
sg30
I4
sg22
Nsg23
L12L
sg24
(lp1247
g27
ag113
asg18
L20214L
sbag5
(g976
g7
Ntp1248
Rp1249
(dp1250
g980
g113
sg19
g1246
sg21
L20222L
sg30
I0
sg22
Nsg23
L12L
sg24
g1247
sg18
L20214L
sbag5
(g976
g7
Ntp1251
Rp1252
(dp1253
g980
g27
sg19
S'\x00\x00\x00[^_]\xc3'
p1254
sg21
L21662L
sg30
I0
sg22
Nsg23
L12L
sg24
(lp1255
g27
ag29
asg18
L21655L
sbag5
(g976
g7
Ntp1256
Rp1257
(dp1258
g980
g29
sg19
g1254
sg21
L21662L
sg30
I4
sg22
Nsg23
L12L
sg24
g1255
sg18
L21655L
sbag5
(g976
g7
Ntp1259
Rp1260
(dp1261
g980
g27
sg19
S'\x00\x00\x00[^_\xc3'
p1262
sg21
L50077L
sg30
I0
sg22
Nsg23
L8L
sg24
(lp1263
g27
asg18
L50071L
sbag5
(g976
g7
Ntp1264
Rp1265
(dp1266
g980
g17
sg19
S'\x00\x00\x00\x83\xc4\x08\x89\xd0[\xc3'
p1267
sg21
L81965L
sg30
I0
sg22
Nsg23
L8L
sg24
(lp1268
g17
asg18
L81956L
sbag5
(g976
g7
Ntp1269
Rp1270
(dp1271
g980
g27
sg19
S'\x00\x00\x00\x81\xc4\xa0\x02\x00\x00[^_\xc3'
p1272
sg21
L28335L
sg30
I0
sg22
Nsg23
L8L
sg24
(lp1273
g27
asg18
L28323L
sbag5
(g976
g7
Ntp1274
Rp1275
(dp1276
g980
g113
sg19
S'\x00\x00\x00t\t[^\xc3'
p1277
sg21
L20353L
sg30
I0
sg22
Nsg23
L8L
sg24
(lp1278
g113
asg18
L20346L
sbag5
(g976
g7
Ntp1279
Rp1280
(dp1281
g980
g29
sg19
S'\x00\x00\x00^_]\xc3'
p1282
sg21
L81304L
sg30
I0
sg22
Nsg23
L8L
sg24
(lp1283
g29
asg18
L81298L
sbag5
(g976
g7
Ntp1284
Rp1285
(dp1286
g980
g27
sg19
S'\x00\x00\x83\xc4\x10[^_\xc3'
p1287
sg21
L21170L
sg30
I24
sg22
Nsg23
L32L
sg24
(lp1288
g27
ag17
ag113
asg18
L21162L
sbag5
(g976
g7
Ntp1289
Rp1290
(dp1291
g980
g17
sg19
g1287
sg21
L21170L
sg30
I16
sg22
Nsg23
L32L
sg24
g1288
sg18
L21162L
sbag5
(g976
g7
Ntp1292
Rp1293
(dp1294
g980
g113
sg19
g1287
sg21
L21170L
sg30
I20
sg22
Nsg23
L32L
sg24
g1288
sg18
L21162L
sbag5
(g976
g7
Ntp1295
Rp1296
(dp1297
g980
g17
sg19
S'\x00\x00\x83\xc4\x18[\xc3'
p1298
sg21
L18836L
sg30
I24
sg22
Nsg23
L32L
sg24
(lp1299
g17
asg18
L18830L
sbag5
(g976
g7
Ntp1300
Rp1301
(dp1302
g980
g17
sg19
S'\x00\x00\x83\xc4\x04[^\xc3'
p1303
sg21
L18122L
sg30
I4
sg22
Nsg23
L16L
sg24
(lp1304
g17
ag113
asg18
L18115L
sbag5
(g976
g7
Ntp1305
Rp1306
(dp1307
g980
g113
sg19
g1303
sg21
L18122L
sg30
I8
sg22
Nsg23
L16L
sg24
g1304
sg18
L18115L
sbag5
(g976
g7
Ntp1308
Rp1309
(dp1310
g980
g17
sg19
g888
sg21
L81965L
sg30
I8
sg22
Nsg23
L16L
sg24
g889
sg18
L81957L
sbag5
(g976
g7
Ntp1311
Rp1312
(dp1313
g980
g17
sg19
S'\x00\x00\x83\xc4\x08[\xc3'
p1314
sg21
L7478L
sg30
I8
sg22
Nsg23
L16L
sg24
(lp1315
g17
asg18
L7472L
sbag5
(g976
g7
Ntp1316
Rp1317
(dp1318
g980
g27
sg19
S'\x00\x00\x89\xf0[^_\xc3'
p1319
sg21
L49069L
sg30
I8
sg22
Nsg23
L16L
sg24
(lp1320
g27
ag14
ag17
ag113
asg18
L49062L
sbag5
(g976
g7
Ntp1321
Rp1322
(dp1323
g980
g17
sg19
g1319
sg21
L49069L
sg30
I0
sg22
Nsg23
L16L
sg24
g1320
sg18
L49062L
sbag5
(g976
g7
Ntp1324
Rp1325
(dp1326
g980
g113
sg19
g1319
sg21
L49069L
sg30
I4
sg22
Nsg23
L16L
sg24
g1320
sg18
L49062L
sbag5
(g976
g7
Ntp1327
Rp1328
(dp1329
g980
g27
sg19
S'\x00\x00[^_]\xc3'
p1330
sg21
L17690L
sg30
I8
sg22
Nsg23
L20L
sg24
(lp1331
g27
ag29
ag17
ag113
asg18
L17684L
sbag5
(g976
g7
Ntp1332
Rp1333
(dp1334
g980
g29
sg19
g1330
sg21
L17690L
sg30
I12
sg22
Nsg23
L20L
sg24
g1331
sg18
L17684L
sbag5
(g976
g7
Ntp1335
Rp1336
(dp1337
g980
g17
sg19
g1330
sg21
L17690L
sg30
I0
sg22
Nsg23
L20L
sg24
g1331
sg18
L17684L
sbag5
(g976
g7
Ntp1338
Rp1339
(dp1340
g980
g113
sg19
g1330
sg21
L17690L
sg30
I4
sg22
Nsg23
L20L
sg24
g1331
sg18
L17684L
sbag5
(g976
g7
Ntp1341
Rp1342
(dp1343
g980
g27
sg19
S'\x00\x00[^_\xc3'
p1344
sg21
L28335L
sg30
I8
sg22
Nsg23
L16L
sg24
(lp1345
g27
ag17
ag113
asg18
L28330L
sbag5
(g976
g7
Ntp1346
Rp1347
(dp1348
g980
g17
sg19
g1344
sg21
L28335L
sg30
I0
sg22
Nsg23
L16L
sg24
g1345
sg18
L28330L
sbag5
(g976
g7
Ntp1349
Rp1350
(dp1351
g980
g113
sg19
g1344
sg21
L28335L
sg30
I4
sg22
Nsg23
L16L
sg24
g1345
sg18
L28330L
sbag5
(g976
g7
Ntp1352
Rp1353
(dp1354
g980
g17
sg19
S'\x00\x00[^\xc3'
p1355
sg21
L48199L
sg30
I0
sg22
Nsg23
L12L
sg24
(lp1356
g17
ag113
asg18
L48195L
sbag5
(g976
g7
Ntp1357
Rp1358
(dp1359
g980
g113
sg19
g1355
sg21
L48199L
sg30
I4
sg22
Nsg23
L12L
sg24
g1356
sg18
L48195L
sbag5
(g976
g7
Ntp1360
Rp1361
(dp1362
g980
g27
sg19
S'\x00\x00^_]\xc3'
p1363
sg21
L81304L
sg30
I4
sg22
Nsg23
L16L
sg24
(lp1364
g27
ag29
ag113
asg18
L81299L
sbag5
(g976
g7
Ntp1365
Rp1366
(dp1367
g980
g29
sg19
g1363
sg21
L81304L
sg30
I8
sg22
Nsg23
L16L
sg24
g1364
sg18
L81299L
sbag5
(g976
g7
Ntp1368
Rp1369
(dp1370
g980
g113
sg19
g1363
sg21
L81304L
sg30
I0
sg22
Nsg23
L16L
sg24
g1364
sg18
L81299L
sbag5
(g976
g7
Ntp1371
Rp1372
(dp1373
g980
g27
sg19
S'\x00\x00^_\xc3'
p1374
sg21
L30309L
sg30
I4
sg22
Nsg23
L12L
sg24
(lp1375
g27
ag113
asg18
L30305L
sbag5
(g976
g7
Ntp1376
Rp1377
(dp1378
g980
g113
sg19
g1374
sg21
L30309L
sg30
I0
sg22
Nsg23
L12L
sg24
g1375
sg18
L30305L
sbag5
(g976
g7
Ntp1379
Rp1380
(dp1381
g980
g17
sg19
S'\x00u\x13\x83\xc4\x18[\xc3'
p1382
sg21
L51365L
sg30
I24
sg22
Nsg23
L32L
sg24
(lp1383
g17
asg18
L51358L
sbag5
(g976
g7
Ntp1384
Rp1385
(dp1386
g980
g17
sg19
S'\x00u1\x83\xc4\x14[^\xc3'
p1387
sg21
L30814L
sg30
I20
sg22
Nsg23
L32L
sg24
(lp1388
g17
ag113
asg18
L30806L
sbag5
(g976
g7
Ntp1389
Rp1390
(dp1391
g980
g113
sg19
g1387
sg21
L30814L
sg30
I24
sg22
Nsg23
L32L
sg24
g1388
sg18
L30806L
sbag5
(g976
g7
Ntp1392
Rp1393
(dp1394
g980
g17
sg19
S'\x00u?\x83\xc4\x18[\xc3'
p1395
sg21
L17041L
sg30
I24
sg22
Nsg23
L32L
sg24
(lp1396
g17
asg18
L17034L
sbag5
(g976
g7
Ntp1397
Rp1398
(dp1399
g980
g27
sg19
S'\x00\x8de\xf4[^_]\xc3'
p1400
sg21
L31756L
sg30
I0
sg22
Nsg23
L12L
sg24
(lp1401
g27
ag29
asg18
L31748L
sbag5
(g976
g7
Ntp1402
Rp1403
(dp1404
g980
g29
sg19
g1400
sg21
L31756L
sg30
I4
sg22
Nsg23
L12L
sg24
g1401
sg18
L31748L
sbag5
(g976
g7
Ntp1405
Rp1406
(dp1407
g980
g27
sg19
S'\x00u\n[1\xc0^_\xc3'
p1408
sg21
L47491L
sg30
I8
sg22
Nsg23
L16L
sg24
(lp1409
g27
ag14
ag17
ag113
asg18
L47483L
sbag5
(g976
g7
Ntp1410
Rp1411
(dp1412
g980
g17
sg19
g1408
sg21
L47491L
sg30
I0
sg22
Nsg23
L16L
sg24
g1409
sg18
L47483L
sbag5
(g976
g7
Ntp1413
Rp1414
(dp1415
g980
g113
sg19
g1408
sg21
L47491L
sg30
I4
sg22
Nsg23
L16L
sg24
g1409
sg18
L47483L
sbag5
(g976
g7
Ntp1416
Rp1417
(dp1418
g980
g17
sg19
S'\x00u\x06\x83\xc4\x14[^\xc3'
p1419
sg21
L47428L
sg30
I20
sg22
Nsg23
L32L
sg24
(lp1420
g17
ag113
asg18
L47420L
sbag5
(g976
g7
Ntp1421
Rp1422
(dp1423
g980
g113
sg19
g1419
sg21
L47428L
sg30
I24
sg22
Nsg23
L32L
sg24
g1420
sg18
L47420L
sbag5
(g976
g7
Ntp1424
Rp1425
(dp1426
g980
g27
sg19
S'\x00t\x05[^_\xc3'
p1427
sg21
L20222L
sg30
I4
sg22
Nsg23
L12L
sg24
(lp1428
g27
ag113
asg18
L20216L
sbag5
(g976
g7
Ntp1429
Rp1430
(dp1431
g980
g113
sg19
g1427
sg21
L20222L
sg30
I0
sg22
Nsg23
L12L
sg24
g1428
sg18
L20216L
sbag5
(g976
g7
Ntp1432
Rp1433
(dp1434
g980
g27
sg19
S'\x00\x83\xc4\x0c[^_]\xc3'
p1435
sg21
L19856L
sg30
I0
sg22
Nsg23
L12L
sg24
(lp1436
g27
ag29
asg18
L19848L
sbag5
(g976
g7
Ntp1437
Rp1438
(dp1439
g980
g29
sg19
g1435
sg21
L19856L
sg30
I4
sg22
Nsg23
L12L
sg24
g1436
sg18
L19848L
sbag5
(g976
g7
Ntp1440
Rp1441
(dp1442
g980
g27
sg19
S'\x00\x83\xc4\x10[^_\xc3'
p1443
sg21
L21170L
sg30
I0
sg22
Nsg23
L8L
sg24
(lp1444
g27
asg18
L21163L
sbag5
(g976
g7
Ntp1445
Rp1446
(dp1447
g980
g27
sg19
S'\x00\x83\xc4\x1c[^_]\xc3'
p1448
sg21
L19070L
sg30
I0
sg22
Nsg23
L12L
sg24
(lp1449
g27
ag29
asg18
L19062L
sbag5
(g976
g7
Ntp1450
Rp1451
(dp1452
g980
g29
sg19
g1448
sg21
L19070L
sg30
I4
sg22
Nsg23
L12L
sg24
g1449
sg18
L19062L
sbag5
(g976
g7
Ntp1453
Rp1454
(dp1455
g980
g27
sg19
S'\x00\x83\xc4,[^_]\xc3'
p1456
sg21
L55621L
sg30
I0
sg22
Nsg23
L12L
sg24
(lp1457
g27
ag29
asg18
L55613L
sbag5
(g976
g7
Ntp1458
Rp1459
(dp1460
g980
g29
sg19
g1456
sg21
L55621L
sg30
I4
sg22
Nsg23
L12L
sg24
g1457
sg18
L55613L
sbag5
(g976
g7
Ntp1461
Rp1462
(dp1463
g980
g27
sg19
S'\x00\x83\xc4<[^_]\xc3'
p1464
sg21
L46588L
sg30
I0
sg22
Nsg23
L12L
sg24
(lp1465
g27
ag29
asg18
L46580L
sbag5
(g976
g7
Ntp1466
Rp1467
(dp1468
g980
g29
sg19
g1464
sg21
L46588L
sg30
I4
sg22
Nsg23
L12L
sg24
g1465
sg18
L46580L
sbag5
(g976
g7
Ntp1469
Rp1470
(dp1471
g980
g27
sg19
S'\x00\x83\xc4L[^_]\xc3'
p1472
sg21
L23234L
sg30
I0
sg22
Nsg23
L12L
sg24
(lp1473
g27
ag29
asg18
L23226L
sbag5
(g976
g7
Ntp1474
Rp1475
(dp1476
g980
g29
sg19
g1472
sg21
L23234L
sg30
I4
sg22
Nsg23
L12L
sg24
g1473
sg18
L23226L
sbag5
(g976
g7
Ntp1477
Rp1478
(dp1479
g980
g27
sg19
S'\x00\x83\xc4\\[^_]\xc3'
p1480
sg21
L83196L
sg30
I0
sg22
Nsg23
L12L
sg24
(lp1481
g27
ag29
asg18
L83188L
sbag5
(g976
g7
Ntp1482
Rp1483
(dp1484
g980
g29
sg19
g1480
sg21
L83196L
sg30
I4
sg22
Nsg23
L12L
sg24
g1481
sg18
L83188L
sbag5
(g976
g7
Ntp1485
Rp1486
(dp1487
g980
g27
sg19
S'\x00\x83\xc4|[^_]\xc3'
p1488
sg21
L61716L
sg30
I0
sg22
Nsg23
L12L
sg24
(lp1489
g27
ag29
asg18
L61708L
sbag5
(g976
g7
Ntp1490
Rp1491
(dp1492
g980
g29
sg19
g1488
sg21
L61716L
sg30
I4
sg22
Nsg23
L12L
sg24
g1489
sg18
L61708L
sbag5
(g976
g7
Ntp1493
Rp1494
(dp1495
g980
g27
sg19
S'\x00[^_]\xc3'
p1496
sg21
L17690L
sg30
I0
sg22
Nsg23
L12L
sg24
(lp1497
g27
ag29
asg18
L17685L
sbag5
(g976
g7
Ntp1498
Rp1499
(dp1500
g980
g29
sg19
g1496
sg21
L17690L
sg30
I4
sg22
Nsg23
L12L
sg24
g1497
sg18
L17685L
sbag5
(g976
g7
Ntp1501
Rp1502
(dp1503
g980
g27
sg19
S'\x00[^_\xc3'
p1504
sg21
L28335L
sg30
I0
sg22
Nsg23
L8L
sg24
(lp1505
g27
asg18
L28331L
sbag5
(g976
g7
Ntp1506
Rp1507
(dp1508
g980
g17
sg19
S'\x00\x83\xc4\x08\x89\xd0[\xc3'
p1509
sg21
L81965L
sg30
I0
sg22
Nsg23
L8L
sg24
(lp1510
g17
asg18
L81958L
sbag5
(g976
g7
Ntp1511
Rp1512
(dp1513
g980
g27
sg19
S'\x00[\xf3\xa6^\x0f\x95\xc0_\xc3'
p1514
sg21
L16930L
sg30
I4
sg22
Nsg23
L12L
sg24
(lp1515
g27
ag14
ag113
asg18
L16921L
sbag5
(g976
g7
Ntp1516
Rp1517
(dp1518
g980
g113
sg19
g1514
sg21
L16930L
sg30
I0
sg22
Nsg23
L12L
sg24
g1515
sg18
L16921L
sbag5
(g976
g7
Ntp1519
Rp1520
(dp1521
g980
g27
sg19
S'\x00\x81\xc4\xa0\x02\x00\x00[^_\xc3'
p1522
sg21
L28335L
sg30
I0
sg22
Nsg23
L8L
sg24
(lp1523
g27
asg18
L28325L
sbag5
(g976
g7
Ntp1524
Rp1525
(dp1526
g980
g27
sg19
S'\x00\x81\xc4\xac\x04\x00\x00[^_]\xc3'
p1527
sg21
L68032L
sg30
I0
sg22
Nsg23
L12L
sg24
(lp1528
g27
ag29
asg18
L68021L
sbag5
(g976
g7
Ntp1529
Rp1530
(dp1531
g980
g29
sg19
g1527
sg21
L68032L
sg30
I4
sg22
Nsg23
L12L
sg24
g1528
sg18
L68021L
sbag5
(g976
g7
Ntp1532
Rp1533
(dp1534
g980
g113
sg19
S'\x00\x8931\xc0[^\xc3'
p1535
sg21
L48190L
sg30
I0
sg22
Nsg23
L8L
sg24
(lp1536
g113
asg18
L48183L
sbag5
(g976
g7
Ntp1537
Rp1538
(dp1539
g980
g27
sg19
S'\x00\x89\xd7\x89\xf8[^_\xc3'
p1540
sg21
L44887L
sg30
I4
sg22
Nsg23
L12L
sg24
(lp1541
g27
ag113
asg18
L44879L
sbag5
(g976
g7
Ntp1542
Rp1543
(dp1544
g980
g113
sg19
g1540
sg21
L44887L
sg30
I0
sg22
Nsg23
L12L
sg24
g1541
sg18
L44879L
sbag5
(g976
g7
Ntp1545
Rp1546
(dp1547
g980
g29
sg19
S'\x00\x89\xd8[^_]\xc3'
p1548
sg21
L20762L
sg30
I0
sg22
Nsg23
L8L
sg24
(lp1549
g29
asg18
L20755L
sbag5
(g976
g7
Ntp1550
Rp1551
(dp1552
g980
g27
sg19
S'\x00\x81\xc4\x9c\x00\x00\x00[^_]\xc3'
p1553
sg21
L83822L
sg30
I0
sg22
Nsg23
L12L
sg24
(lp1554
g27
ag29
asg18
L83811L
sbag5
(g976
g7
Ntp1555
Rp1556
(dp1557
g980
g29
sg19
g1553
sg21
L83822L
sg30
I4
sg22
Nsg23
L12L
sg24
g1554
sg18
L83811L
sbag5
(g976
g7
Ntp1558
Rp1559
(dp1560
g980
g27
sg19
S'\x00\x81\xc4\xac\x00\x00\x00[^_]\xc3'
p1561
sg21
L52980L
sg30
I0
sg22
Nsg23
L12L
sg24
(lp1562
g27
ag29
asg18
L52969L
sbag5
(g976
g7
Ntp1563
Rp1564
(dp1565
g980
g29
sg19
g1561
sg21
L52980L
sg30
I4
sg22
Nsg23
L12L
sg24
g1562
sg18
L52969L
sbag5
(g976
g7
Ntp1566
Rp1567
(dp1568
g980
g27
sg19
S'\x00\x81\xc4\xbc\x00\x00\x00[^_]\xc3'
p1569
sg21
L21662L
sg30
I0
sg22
Nsg23
L12L
sg24
(lp1570
g27
ag29
asg18
L21651L
sbag5
(g976
g7
Ntp1571
Rp1572
(dp1573
g980
g29
sg19
g1569
sg21
L21662L
sg30
I4
sg22
Nsg23
L12L
sg24
g1570
sg18
L21651L
sbag5
(g976
g7
Ntp1574
Rp1575
(dp1576
g980
g27
sg19
S'\x00\x81\xc4\xec\x00\x00\x00[^_]\xc3'
p1577
sg21
L86963L
sg30
I0
sg22
Nsg23
L12L
sg24
(lp1578
g27
ag29
asg18
L86952L
sbag5
(g976
g7
Ntp1579
Rp1580
(dp1581
g980
g29
sg19
g1577
sg21
L86963L
sg30
I4
sg22
Nsg23
L12L
sg24
g1578
sg18
L86952L
sbag5
(g976
g7
Ntp1582
Rp1583
(dp1584
g980
g113
sg19
S'\x00t\t[^\xc3'
p1585
sg21
L20353L
sg30
I0
sg22
Nsg23
L8L
sg24
(lp1586
g113
asg18
L20348L
sbag5
(g976
g7
Ntp1587
Rp1588
(dp1589
g980
g27
sg19
S'\x00\x89\xf0\x0f\x85\xf2\x00\x00\x00\x81\xc4\xa0\x02\x00\x00[^_\xc3'
p1590
sg21
L28335L
sg30
I0
sg22
Nsg23
L8L
sg24
(lp1591
g27
asg18
L28317L
sbag5
(g976
g7
Ntp1592
Rp1593
(dp1594
g980
g17
sg19
S'\x00\x84\xff\xff\x83\xc4\x10\x83\xc4\x04[^\xc3'
p1595
sg21
L39336L
sg30
I4
sg22
Nsg23
L16L
sg24
(lp1596
g17
ag113
asg18
L39324L
sbag5
(g976
g7
Ntp1597
Rp1598
(dp1599
g980
g113
sg19
g1595
sg21
L39336L
sg30
I8
sg22
Nsg23
L16L
sg24
g1596
sg18
L39324L
sbag5
(g976
g7
Ntp1600
Rp1601
(dp1602
g980
g29
sg19
S'\x00^_]\xc3'
p1603
sg21
L81304L
sg30
I0
sg22
Nsg23
L8L
sg24
(lp1604
g29
asg18
L81300L
sbag5
(g976
g7
Ntp1605
Rp1606
(dp1607
g980
g113
sg19
S'&\x00\x8931\xc0[^\xc3'
p1608
sg21
L48190L
sg30
I0
sg22
Nsg23
L8L
sg24
(lp1609
g113
asg18
L48182L
sbag5
(g976
g7
Ntp1610
Rp1611
(dp1612
g980
g17
sg19
S'\x01\x00\x00\x00\x83\xc4\x04[^\xc3'
p1613
sg21
L45258L
sg30
I4
sg22
Nsg23
L16L
sg24
(lp1614
g17
ag113
asg18
L45249L
sbag5
(g976
g7
Ntp1615
Rp1616
(dp1617
g980
g113
sg19
g1613
sg21
L45258L
sg30
I8
sg22
Nsg23
L16L
sg24
g1614
sg18
L45249L
sbag5
(g976
g7
Ntp1618
Rp1619
(dp1620
g980
g17
sg19
g893
sg21
L81965L
sg30
I8
sg22
Nsg23
L16L
sg24
g894
sg18
L81955L
sbag5
(g976
g7
Ntp1621
Rp1622
(dp1623
g980
g17
sg19
S'\x01\x00\x00\x00[^\xc3'
p1624
sg21
L48199L
sg30
I0
sg22
Nsg23
L12L
sg24
(lp1625
g17
ag113
asg18
L48193L
sbag5
(g976
g7
Ntp1626
Rp1627
(dp1628
g980
g113
sg19
g1624
sg21
L48199L
sg30
I4
sg22
Nsg23
L12L
sg24
g1625
sg18
L48193L
sbag5
(g976
g7
Ntp1629
Rp1630
(dp1631
g980
g27
sg19
S'\x01\x00\x00\x00^_]\xc3'
p1632
sg21
L81304L
sg30
I4
sg22
Nsg23
L16L
sg24
(lp1633
g27
ag29
ag113
asg18
L81297L
sbag5
(g976
g7
Ntp1634
Rp1635
(dp1636
g980
g29
sg19
g1632
sg21
L81304L
sg30
I8
sg22
Nsg23
L16L
sg24
g1633
sg18
L81297L
sbag5
(g976
g7
Ntp1637
Rp1638
(dp1639
g980
g113
sg19
g1632
sg21
L81304L
sg30
I0
sg22
Nsg23
L16L
sg24
g1633
sg18
L81297L
sbag5
(g976
g7
Ntp1640
Rp1641
(dp1642
g980
g27
sg19
S'\x01\x00\x00\x00^_\xc3'
p1643
sg21
L30309L
sg30
I4
sg22
Nsg23
L12L
sg24
(lp1644
g27
ag113
asg18
L30303L
sbag5
(g976
g7
Ntp1645
Rp1646
(dp1647
g980
g113
sg19
g1643
sg21
L30309L
sg30
I0
sg22
Nsg23
L12L
sg24
g1644
sg18
L30303L
sbag5
(g976
g7
Ntp1648
Rp1649
(dp1650
g980
g17
sg19
g57
sg21
L16073L
sg30
I24
sg22
Nsg23
L32L
sg24
g58
sg18
L16067L
sbag5
(g976
g7
Ntp1651
Rp1652
(dp1653
g980
g17
sg19
g92
sg21
L45721L
sg30
I0
sg22
Nsg23
L8L
sg24
g93
sg18
L45708L
sbag5
(g976
g7
Ntp1654
Rp1655
(dp1656
g980
g17
sg19
g97
sg21
L45770L
sg30
I0
sg22
Nsg23
L8L
sg24
g98
sg18
L45757L
sbag5
(g976
g7
Ntp1657
Rp1658
(dp1659
g980
g17
sg19
S'\x83\xc0t\x88B\t[\xc3'
p1660
sg21
L45721L
sg30
I0
sg22
Nsg23
L8L
sg24
(lp1661
g14
ag17
asg18
L45714L
sbag5
(g976
g7
Ntp1662
Rp1663
(dp1664
g980
g17
sg19
S'\x83\xc0x\x88B\t[\xc3'
p1665
sg21
L45770L
sg30
I0
sg22
Nsg23
L8L
sg24
(lp1666
g14
ag17
asg18
L45763L
sbag5
(g976
g7
Ntp1667
Rp1668
(dp1669
g980
g27
sg19
g223
sg21
L37386L
sg30
I0
sg22
Nsg23
L12L
sg24
g224
sg18
L37379L
sbag5
(g976
g7
Ntp1670
Rp1671
(dp1672
g980
g29
sg19
g223
sg21
L37386L
sg30
I4
sg22
Nsg23
L12L
sg24
g224
sg18
L37379L
sbag5
(g976
g7
Ntp1673
Rp1674
(dp1675
g980
g27
sg19
g253
sg21
L49077L
sg30
I0
sg22
Nsg23
L8L
sg24
g254
sg18
L49073L
sbag5
(g976
g7
Ntp1676
Rp1677
(dp1678
g980
g17
sg19
S'\x83\xc4\x10\x83\xc4\x04[^\xc3'
p1679
sg21
L17923L
sg30
I20
sg22
Nsg23
L32L
sg24
(lp1680
g17
ag113
asg18
L17915L
sbag5
(g976
g7
Ntp1681
Rp1682
(dp1683
g980
g113
sg19
g1679
sg21
L17923L
sg30
I24
sg22
Nsg23
L32L
sg24
g1680
sg18
L17915L
sbag5
(g976
g7
Ntp1684
Rp1685
(dp1686
g980
g27
sg19
S'\x83\xc4\x10[^_\xc3'
p1687
sg21
L18765L
sg30
I24
sg22
Nsg23
L32L
sg24
(lp1688
g27
ag17
ag113
asg18
L18759L
sbag5
(g976
g7
Ntp1689
Rp1690
(dp1691
g980
g17
sg19
g1687
sg21
L18765L
sg30
I16
sg22
Nsg23
L32L
sg24
g1688
sg18
L18759L
sbag5
(g976
g7
Ntp1692
Rp1693
(dp1694
g980
g113
sg19
g1687
sg21
L18765L
sg30
I20
sg22
Nsg23
L32L
sg24
g1688
sg18
L18759L
sbag5
(g976
g7
Ntp1695
Rp1696
(dp1697
g980
g17
sg19
S'\x83\xc4\x101\xc0\x83\xc4\x04[^\xc3'
p1698
sg21
L76371L
sg30
I20
sg22
Nsg23
L32L
sg24
(lp1699
g14
ag17
ag113
asg18
L76361L
sbag5
(g976
g7
Ntp1700
Rp1701
(dp1702
g980
g113
sg19
g1698
sg21
L76371L
sg30
I24
sg22
Nsg23
L32L
sg24
g1699
sg18
L76361L
sbag5
(g976
g7
Ntp1703
Rp1704
(dp1705
g980
g27
sg19
S'\x83\xc4\x14[^_]\xc3'
p1706
sg21
L85473L
sg30
I28
sg22
Nsg23
L40L
sg24
(lp1707
g27
ag29
ag17
ag113
asg18
L85466L
sbag5
(g976
g7
Ntp1708
Rp1709
(dp1710
g980
g17
sg19
g1706
sg21
L85473L
sg30
I20
sg22
Nsg23
L40L
sg24
g1707
sg18
L85466L
sbag5
(g976
g7
Ntp1711
Rp1712
(dp1713
g980
g113
sg19
g1706
sg21
L85473L
sg30
I24
sg22
Nsg23
L40L
sg24
g1707
sg18
L85466L
sbag5
(g976
g7
Ntp1714
Rp1715
(dp1716
g980
g17
sg19
S'\x83\xc4\x14[^\xc3'
p1717
sg21
L21031L
sg30
I20
sg22
Nsg23
L32L
sg24
(lp1718
g17
ag113
asg18
L21026L
sbag5
(g976
g7
Ntp1719
Rp1720
(dp1721
g980
g113
sg19
g1717
sg21
L21031L
sg30
I24
sg22
Nsg23
L32L
sg24
g1718
sg18
L21026L
sbag5
(g976
g7
Ntp1722
Rp1723
(dp1724
g980
g17
sg19
S'\x83\xc4\x18[^_]\xc3'
p1725
sg21
L16360L
sg30
I24
sg22
Nsg23
L44L
sg24
(lp1726
g27
ag29
ag17
ag113
asg18
L16353L
sbag5
(g976
g7
Ntp1727
Rp1728
(dp1729
g980
g113
sg19
g1725
sg21
L16360L
sg30
I28
sg22
Nsg23
L44L
sg24
g1726
sg18
L16353L
sbag5
(g976
g7
Ntp1730
Rp1731
(dp1732
g980
g17
sg19
S'\x83\xc4\x18[\xc3'
p1733
sg21
L16073L
sg30
I24
sg22
Nsg23
L32L
sg24
(lp1734
g17
asg18
L16069L
sbag5
(g976
g7
Ntp1735
Rp1736
(dp1737
g980
g17
sg19
S'\x83\xc4\x1c[^_]\xc3'
p1738
sg21
L17853L
sg30
I28
sg22
Nsg23
L48L
sg24
(lp1739
g27
ag29
ag17
ag113
asg18
L17846L
sbag5
(g976
g7
Ntp1740
Rp1741
(dp1742
g980
g27
sg19
S'\x83\xc4\x0c[^_]\xc3'
p1743
sg21
L19856L
sg30
I20
sg22
Nsg23
L32L
sg24
(lp1744
g27
ag29
ag17
ag113
asg18
L19849L
sbag5
(g976
g7
Ntp1745
Rp1746
(dp1747
g980
g29
sg19
g1743
sg21
L19856L
sg30
I24
sg22
Nsg23
L32L
sg24
g1744
sg18
L19849L
sbag5
(g976
g7
Ntp1748
Rp1749
(dp1750
g980
g17
sg19
g1743
sg21
L19856L
sg30
I12
sg22
Nsg23
L32L
sg24
g1744
sg18
L19849L
sbag5
(g976
g7
Ntp1751
Rp1752
(dp1753
g980
g113
sg19
g1743
sg21
L19856L
sg30
I16
sg22
Nsg23
L32L
sg24
g1744
sg18
L19849L
sbag5
(g976
g7
Ntp1754
Rp1755
(dp1756
g980
g17
sg19
g898
sg21
L45168L
sg30
I4
sg22
Nsg23
L16L
sg24
g899
sg18
L45161L
sbag5
(g976
g7
Ntp1757
Rp1758
(dp1759
g980
g113
sg19
g898
sg21
L45168L
sg30
I8
sg22
Nsg23
L16L
sg24
g899
sg18
L45161L
sbag5
(g976
g7
Ntp1760
Rp1761
(dp1762
g980
g17
sg19
S'\x83\xc4\x04[^\x8d\x04\xc2\xc3'
p1763
sg21
L47739L
sg30
I4
sg22
Nsg23
L16L
sg24
(lp1764
g14
ag17
ag113
asg18
L47731L
sbag5
(g976
g7
Ntp1765
Rp1766
(dp1767
g980
g113
sg19
g1763
sg21
L47739L
sg30
I8
sg22
Nsg23
L16L
sg24
g1764
sg18
L47731L
sbag5
(g976
g7
Ntp1768
Rp1769
(dp1770
g980
g17
sg19
S'\x83\xc4\x04[^\xc3'
p1771
sg21
L17923L
sg30
I4
sg22
Nsg23
L16L
sg24
(lp1772
g17
ag113
asg18
L17918L
sbag5
(g976
g7
Ntp1773
Rp1774
(dp1775
g980
g113
sg19
g1771
sg21
L17923L
sg30
I8
sg22
Nsg23
L16L
sg24
g1772
sg18
L17918L
sbag5
(g976
g7
Ntp1776
Rp1777
(dp1778
g980
g17
sg19
g903
sg21
L81965L
sg30
I8
sg22
Nsg23
L16L
sg24
g904
sg18
L81959L
sbag5
(g976
g7
Ntp1779
Rp1780
(dp1781
g980
g17
sg19
S'\x83\xc4\x08[\xc3'
p1782
sg21
L7478L
sg30
I8
sg22
Nsg23
L16L
sg24
(lp1783
g17
asg18
L7474L
sbag5
(g976
g7
Ntp1784
Rp1785
(dp1786
g980
g17
sg19
S'\x83\xc4\x081\xc0[\xc3'
p1787
sg21
L49152L
sg30
I8
sg22
Nsg23
L16L
sg24
(lp1788
g14
ag17
asg18
L49146L
sbag5
(g976
g7
Ntp1789
Rp1790
(dp1791
g980
g27
sg19
S'"\x83\xc4\x0c[^_]\xc3'
p1792
sg21
L81809L
sg30
I0
sg22
Nsg23
L12L
sg24
(lp1793
g27
ag14
ag29
asg18
L81801L
sbag5
(g976
g7
Ntp1794
Rp1795
(dp1796
g980
g29
sg19
g1792
sg21
L81809L
sg30
I4
sg22
Nsg23
L12L
sg24
g1793
sg18
L81801L
sbag5
(g976
g7
Ntp1797
Rp1798
(dp1799
g980
g27
sg19
S' \x00\x00[^_]\xc3'
p1800
sg21
L24190L
sg30
I0
sg22
Nsg23
L12L
sg24
(lp1801
g27
ag29
asg18
L24183L
sbag5
(g976
g7
Ntp1802
Rp1803
(dp1804
g980
g29
sg19
g1800
sg21
L24190L
sg30
I4
sg22
Nsg23
L12L
sg24
g1801
sg18
L24183L
sbag5
(g976
g7
Ntp1805
Rp1806
(dp1807
g980
g27
sg19
S' \x83\xc4,[^_]\xc3'
p1808
sg21
L75263L
sg30
I0
sg22
Nsg23
L12L
sg24
(lp1809
g27
ag29
asg18
L75255L
sbag5
(g976
g7
Ntp1810
Rp1811
(dp1812
g980
g29
sg19
g1808
sg21
L75263L
sg30
I4
sg22
Nsg23
L12L
sg24
g1809
sg18
L75255L
sbag5
(g976
g7
Ntp1813
Rp1814
(dp1815
g980
g27
sg19
S' [^_\xc3'
p1816
sg21
L44001L
sg30
I0
sg22
Nsg23
L8L
sg24
(lp1817
g27
asg18
L43997L
sbag5
(g976
g7
Ntp1818
Rp1819
(dp1820
g980
g17
sg19
S'\x83\xe0\xb5\x83\xc0x\x88B\t[\xc3'
p1821
sg21
L45770L
sg30
I0
sg22
Nsg23
L8L
sg24
(lp1822
g14
ag17
asg18
L45760L
sbag5
(g976
g7
Ntp1823
Rp1824
(dp1825
g980
g17
sg19
S'\x83\xe0\xe0\x83\xc0t\x88B\t[\xc3'
p1826
sg21
L45721L
sg30
I0
sg22
Nsg23
L8L
sg24
(lp1827
g14
ag17
asg18
L45711L
sbag5
(g976
g7
Ntp1828
Rp1829
(dp1830
g980
g27
sg19
S'c\xff\xff\x83\xc4<[^_]\xc3'
p1831
sg21
L48977L
sg30
I0
sg22
Nsg23
L12L
sg24
(lp1832
g27
ag29
asg18
L48967L
sbag5
(g976
g7
Ntp1833
Rp1834
(dp1835
g980
g29
sg19
g1831
sg21
L48977L
sg30
I4
sg22
Nsg23
L12L
sg24
g1832
sg18
L48967L
sbag5
(g976
g7
Ntp1836
Rp1837
(dp1838
g980
g27
sg19
S'b\x00\x00\x83\xc4\x10[^_\xc3'
p1839
sg21
L21170L
sg30
I0
sg22
Nsg23
L8L
sg24
(lp1840
g27
asg18
L21161L
sbag5
(g976
g7
Ntp1841
Rp1842
(dp1843
g980
g17
sg19
g119
sg21
L45721L
sg30
I0
sg22
Nsg23
L8L
sg24
g120
sg18
L45707L
sbag5
(g976
g7
Ntp1844
Rp1845
(dp1846
g980
g17
sg19
g124
sg21
L45770L
sg30
I0
sg22
Nsg23
L8L
sg24
g125
sg18
L45756L
sbag5
(g976
g7
Ntp1847
Rp1848
(dp1849
g980
g27
sg19
S'\xf8[^_]\xc3'
p1850
sg21
L43529L
sg30
I8
sg22
Nsg23
L20L
sg24
(lp1851
g27
ag29
ag17
ag113
asg18
L43524L
sbag5
(g976
g7
Ntp1852
Rp1853
(dp1854
g980
g29
sg19
g1850
sg21
L43529L
sg30
I12
sg22
Nsg23
L20L
sg24
g1851
sg18
L43524L
sbag5
(g976
g7
Ntp1855
Rp1856
(dp1857
g980
g17
sg19
g1850
sg21
L43529L
sg30
I0
sg22
Nsg23
L20L
sg24
g1851
sg18
L43524L
sbag5
(g976
g7
Ntp1858
Rp1859
(dp1860
g980
g113
sg19
g1850
sg21
L43529L
sg30
I4
sg22
Nsg23
L20L
sg24
g1851
sg18
L43524L
sbag5
(g976
g7
Ntp1861
Rp1862
(dp1863
g980
g27
sg19
S'\xf8[^_\xc3'
p1864
sg21
L44869L
sg30
I8
sg22
Nsg23
L16L
sg24
(lp1865
g27
ag17
ag113
asg18
L44865L
sbag5
(g976
g7
Ntp1866
Rp1867
(dp1868
g980
g17
sg19
g1864
sg21
L44869L
sg30
I0
sg22
Nsg23
L16L
sg24
g1865
sg18
L44865L
sbag5
(g976
g7
Ntp1869
Rp1870
(dp1871
g980
g113
sg19
g1864
sg21
L44869L
sg30
I4
sg22
Nsg23
L16L
sg24
g1865
sg18
L44865L
sbag5
(g976
g7
Ntp1872
Rp1873
(dp1874
g980
g27
sg19
S'\xf8^_]\xc3'
p1875
sg21
L43574L
sg30
I4
sg22
Nsg23
L16L
sg24
(lp1876
g27
ag29
ag113
asg18
L43570L
sbag5
(g976
g7
Ntp1877
Rp1878
(dp1879
g980
g29
sg19
g1875
sg21
L43574L
sg30
I8
sg22
Nsg23
L16L
sg24
g1876
sg18
L43570L
sbag5
(g976
g7
Ntp1880
Rp1881
(dp1882
g980
g113
sg19
g1875
sg21
L43574L
sg30
I0
sg22
Nsg23
L16L
sg24
g1876
sg18
L43570L
sbag5
(g976
g7
Ntp1883
Rp1884
(dp1885
g980
g27
sg19
S'\x0fE\xc2^_\xc3'
p1886
sg21
L59918L
sg30
I4
sg22
Nsg23
L12L
sg24
(lp1887
g27
ag113
asg18
L59913L
sbag5
(g976
g7
Ntp1888
Rp1889
(dp1890
g980
g113
sg19
g1886
sg21
L59918L
sg30
I0
sg22
Nsg23
L12L
sg24
g1887
sg18
L59913L
sbag5
(g976
g7
Ntp1891
Rp1892
(dp1893
g980
g27
sg19
S'<[^_]\xc3'
p1894
sg21
L36136L
sg30
I4
sg22
Nsg23
L16L
sg24
(lp1895
g27
ag29
ag113
asg18
L36131L
sbag5
(g976
g7
Ntp1896
Rp1897
(dp1898
g980
g29
sg19
g1894
sg21
L36136L
sg30
I8
sg22
Nsg23
L16L
sg24
g1895
sg18
L36131L
sbag5
(g976
g7
Ntp1899
Rp1900
(dp1901
g980
g113
sg19
g1894
sg21
L36136L
sg30
I0
sg22
Nsg23
L16L
sg24
g1895
sg18
L36131L
sbag5
(g976
g7
Ntp1902
Rp1903
(dp1904
g980
g27
sg19
S':\x83\xc4\x18[^_]\xc3'
p1905
sg21
L16360L
sg30
I0
sg22
Nsg23
L12L
sg24
(lp1906
g27
ag29
asg18
L16352L
sbag5
(g976
g7
Ntp1907
Rp1908
(dp1909
g980
g29
sg19
g1905
sg21
L16360L
sg30
I4
sg22
Nsg23
L12L
sg24
g1906
sg18
L16352L
sbag5
(g976
g7
Ntp1910
Rp1911
(dp1912
g980
g27
sg19
S'\x80>0[^_\x0f\x95\xc0\xc3'
p1913
sg21
L16953L
sg30
I8
sg22
Nsg23
L16L
sg24
(lp1914
g27
ag14
ag17
ag113
asg18
L16944L
sbag5
(g976
g7
Ntp1915
Rp1916
(dp1917
g980
g17
sg19
g1913
sg21
L16953L
sg30
I0
sg22
Nsg23
L16L
sg24
g1914
sg18
L16944L
sbag5
(g976
g7
Ntp1918
Rp1919
(dp1920
g980
g113
sg19
g1913
sg21
L16953L
sg30
I4
sg22
Nsg23
L16L
sg24
g1914
sg18
L16944L
sbag5
(g976
g7
Ntp1921
Rp1922
(dp1923
g980
g27
sg19
S'9W\x10[^_\x0f\x94\xc0\xc3'
p1924
sg21
L48725L
sg30
I8
sg22
Nsg23
L16L
sg24
(lp1925
g27
ag14
ag17
ag113
asg18
L48716L
sbag5
(g976
g7
Ntp1926
Rp1927
(dp1928
g980
g17
sg19
g1924
sg21
L48725L
sg30
I0
sg22
Nsg23
L16L
sg24
g1925
sg18
L48716L
sbag5
(g976
g7
Ntp1929
Rp1930
(dp1931
g980
g113
sg19
g1924
sg21
L48725L
sg30
I4
sg22
Nsg23
L16L
sg24
g1925
sg18
L48716L
sbag5
(g976
g7
Ntp1932
Rp1933
(dp1934
g980
g27
sg19
g913
sg21
L59977L
sg30
I8
sg22
Nsg23
L16L
sg24
g914
sg18
L59966L
sbag5
(g976
g7
Ntp1935
Rp1936
(dp1937
g980
g17
sg19
g913
sg21
L59977L
sg30
I0
sg22
Nsg23
L16L
sg24
g914
sg18
L59966L
sbag5
(g976
g7
Ntp1938
Rp1939
(dp1940
g980
g113
sg19
g913
sg21
L59977L
sg30
I4
sg22
Nsg23
L16L
sg24
g914
sg18
L59966L
sbag5
(g976
g7
Ntp1941
Rp1942
(dp1943
g980
g27
sg19
S';[^_\xc3'
p1944
sg21
L65189L
sg30
I0
sg22
Nsg23
L8L
sg24
(lp1945
g27
asg18
L65185L
sbag5
(g976
g7
Ntp1946
Rp1947
(dp1948
g980
g17
sg19
S'\x83\xff\xff\x83\xc4\x10\x83\xc4\x04[^\xc3'
p1949
sg21
L39416L
sg30
I20
sg22
Nsg23
L32L
sg24
(lp1950
g17
ag113
asg18
L39405L
sbag5
(g976
g7
Ntp1951
Rp1952
(dp1953
g980
g113
sg19
g1949
sg21
L39416L
sg30
I24
sg22
Nsg23
L32L
sg24
g1950
sg18
L39405L
sbag5
(g976
g7
Ntp1954
Rp1955
(dp1956
g980
g27
sg19
g918
sg21
L59918L
sg30
I8
sg22
Nsg23
L16L
sg24
g919
sg18
L59909L
sbag5
(g976
g7
Ntp1957
Rp1958
(dp1959
g980
g17
sg19
g918
sg21
L59918L
sg30
I0
sg22
Nsg23
L16L
sg24
g919
sg18
L59909L
sbag5
(g976
g7
Ntp1960
Rp1961
(dp1962
g980
g113
sg19
g918
sg21
L59918L
sg30
I4
sg22
Nsg23
L16L
sg24
g919
sg18
L59909L
sbag5
(g976
g7
Ntp1963
Rp1964
(dp1965
g980
g27
sg19
S'\xa6^\x0f\x95\xc0_\xc3'
p1966
sg21
L16930L
sg30
I4
sg22
Nsg23
L12L
sg24
(lp1967
g27
ag14
ag113
asg18
L16924L
sbag5
(g976
g7
Ntp1968
Rp1969
(dp1970
g980
g113
sg19
g1966
sg21
L16930L
sg30
I0
sg22
Nsg23
L12L
sg24
g1967
sg18
L16924L
sbag5
(g976
g7
Ntp1971
Rp1972
(dp1973
g980
g27
sg19
g923
sg21
L59918L
sg30
I8
sg22
Nsg23
L16L
sg24
g924
sg18
L59910L
sbag5
(g976
g7
Ntp1974
Rp1975
(dp1976
g980
g17
sg19
g923
sg21
L59918L
sg30
I0
sg22
Nsg23
L16L
sg24
g924
sg18
L59910L
sbag5
(g976
g7
Ntp1977
Rp1978
(dp1979
g980
g113
sg19
g923
sg21
L59918L
sg30
I4
sg22
Nsg23
L16L
sg24
g924
sg18
L59910L
sbag5
(g976
g7
Ntp1980
Rp1981
(dp1982
g980
g17
sg19
S'H[\xc3'
p1983
sg21
L65955L
sg30
I0
sg22
Nsg23
L8L
sg24
(lp1984
g14
ag17
asg18
L65953L
sbag5
(g976
g7
Ntp1985
Rp1986
(dp1987
g980
g27
sg19
S'K[^_\xc3'
p1988
sg21
L44658L
sg30
I8
sg22
Nsg23
L16L
sg24
(lp1989
g27
ag17
ag113
asg18
L44654L
sbag5
(g976
g7
Ntp1990
Rp1991
(dp1992
g980
g17
sg19
g1988
sg21
L44658L
sg30
I0
sg22
Nsg23
L16L
sg24
g1989
sg18
L44654L
sbag5
(g976
g7
Ntp1993
Rp1994
(dp1995
g980
g113
sg19
g1988
sg21
L44658L
sg30
I4
sg22
Nsg23
L16L
sg24
g1989
sg18
L44654L
sbag5
(g976
g7
Ntp1996
Rp1997
(dp1998
g980
g17
sg19
S'\xf6u\x1f\x83\xc4\x04[^\xc3'
p1999
sg21
L76346L
sg30
I4
sg22
Nsg23
L16L
sg24
(lp2000
g14
ag17
ag113
asg18
L76338L
sbag5
(g976
g7
Ntp2001
Rp2002
(dp2003
g980
g113
sg19
g1999
sg21
L76346L
sg30
I8
sg22
Nsg23
L16L
sg24
g2000
sg18
L76338L
sbag5
(g976
g7
Ntp2004
Rp2005
(dp2006
g980
g17
sg19
S'\xf6u\x06\x83\xc4\x04[^\xc3'
p2007
sg21
L76218L
sg30
I4
sg22
Nsg23
L16L
sg24
(lp2008
g14
ag17
ag113
asg18
L76210L
sbag5
(g976
g7
Ntp2009
Rp2010
(dp2011
g980
g113
sg19
g2007
sg21
L76218L
sg30
I8
sg22
Nsg23
L16L
sg24
g2008
sg18
L76210L
sbag5
(g976
g7
Ntp2012
Rp2013
(dp2014
g980
g27
sg19
S'\xf7s\x0c[\xb8\xff\xff\xff\xff^_\xc3'
p2015
sg21
L30332L
sg30
I8
sg22
Nsg23
L16L
sg24
(lp2016
g27
ag14
ag41
ag17
ag113
asg18
L30321L
sbag5
(g976
g7
Ntp2017
Rp2018
(dp2019
g980
g17
sg19
g2015
sg21
L30332L
sg30
I0
sg22
Nsg23
L16L
sg24
g2016
sg18
L30321L
sbag5
(g976
g7
Ntp2020
Rp2021
(dp2022
g980
g113
sg19
g2015
sg21
L30332L
sg30
I4
sg22
Nsg23
L16L
sg24
g2016
sg18
L30321L
sbag5
(g976
g7
Ntp2023
Rp2024
(dp2025
g980
g27
sg19
S'\xd8\x83\xc4\x1c[^_]\xc3'
p2026
sg21
L19405L
sg30
I0
sg22
Nsg23
L12L
sg24
(lp2027
g27
ag29
asg18
L19397L
sbag5
(g976
g7
Ntp2028
Rp2029
(dp2030
g980
g29
sg19
g2026
sg21
L19405L
sg30
I4
sg22
Nsg23
L12L
sg24
g2027
sg18
L19397L
sbag5
(g976
g7
Ntp2031
Rp2032
(dp2033
g980
g27
sg19
S'\xd8[^_]\xc3'
p2034
sg21
L20762L
sg30
I0
sg22
Nsg23
L12L
sg24
(lp2035
g27
ag29
asg18
L20757L
sbag5
(g976
g7
Ntp2036
Rp2037
(dp2038
g980
g29
sg19
g2034
sg21
L20762L
sg30
I4
sg22
Nsg23
L12L
sg24
g2035
sg18
L20757L
sbag5
(g976
g7
Ntp2039
Rp2040
(dp2041
g980
g29
sg19
S'\xd8^_]\xc3'
p2042
sg21
L83591L
sg30
I0
sg22
Nsg23
L8L
sg24
(lp2043
g29
asg18
L83587L
sbag5
(g976
g7
Ntp2044
Rp2045
(dp2046
g980
g113
sg19
S'\xdc\xff\xff\x83\xc4\x10\x83\xc4\x04[^\xc3'
p2047
sg21
L17923L
sg30
I0
sg22
Nsg23
L8L
sg24
(lp2048
g14
ag113
asg18
L17912L
sbag5
(g976
g7
Ntp2049
Rp2050
(dp2051
g980
g27
sg19
S'\xda\x83\xc4\x14[^_]\xc3'
p2052
sg21
L85473L
sg30
I0
sg22
Nsg23
L12L
sg24
(lp2053
g27
ag29
asg18
L85465L
sbag5
(g976
g7
Ntp2054
Rp2055
(dp2056
g980
g29
sg19
g2052
sg21
L85473L
sg30
I4
sg22
Nsg23
L12L
sg24
g2053
sg18
L85465L
sbag5
(g976
g7
Ntp2057
Rp2058
(dp2059
g980
g27
sg19
S'\xda\x83\xc4\x1c[^_]\xc3'
p2060
sg21
L88242L
sg30
I0
sg22
Nsg23
L12L
sg24
(lp2061
g27
ag29
asg18
L88234L
sbag5
(g976
g7
Ntp2062
Rp2063
(dp2064
g980
g29
sg19
g2060
sg21
L88242L
sg30
I4
sg22
Nsg23
L12L
sg24
g2061
sg18
L88234L
sbag5
(g976
g7
Ntp2065
Rp2066
(dp2067
g980
g27
sg19
S'\xda\x83\xc4,[^_]\xc3'
p2068
sg21
L88626L
sg30
I0
sg22
Nsg23
L12L
sg24
(lp2069
g27
ag29
asg18
L88618L
sbag5
(g976
g7
Ntp2070
Rp2071
(dp2072
g980
g29
sg19
g2068
sg21
L88626L
sg30
I4
sg22
Nsg23
L12L
sg24
g2069
sg18
L88618L
sbag5
(g976
g7
Ntp2073
Rp2074
(dp2075
g980
g17
sg19
S'k\x00\x00\x83\xc4\x18[\xc3'
p2076
sg21
L18836L
sg30
I24
sg22
Nsg23
L32L
sg24
(lp2077
g14
ag17
asg18
L18829L
sbag5
(g976
g7
Ntp2078
Rp2079
(dp2080
g980
g27
sg19
S'\xe4[1\xc0^_\xc3'
p2081
sg21
L49057L
sg30
I4
sg22
Nsg23
L12L
sg24
(lp2082
g27
ag14
ag113
asg18
L49051L
sbag5
(g976
g7
Ntp2083
Rp2084
(dp2085
g980
g113
sg19
g2081
sg21
L49057L
sg30
I0
sg22
Nsg23
L12L
sg24
g2082
sg18
L49051L
sbag5
(g976
g7
Ntp2086
Rp2087
(dp2088
g980
g27
sg19
S'\xec\x00\x00\x00[^_]\xc3'
p2089
sg21
L86963L
sg30
I0
sg22
Nsg23
L12L
sg24
(lp2090
g27
ag14
ag29
asg18
L86955L
sbag5
(g976
g7
Ntp2091
Rp2092
(dp2093
g980
g29
sg19
g2089
sg21
L86963L
sg30
I4
sg22
Nsg23
L12L
sg24
g2090
sg18
L86955L
sbag5
(g976
g7
Ntp2094
Rp2095
(dp2096
g980
g17
sg19
S'\xec\x83\xc4\x04[^\xc3'
p2097
sg21
L82889L
sg30
I4
sg22
Nsg23
L16L
sg24
(lp2098
g14
ag17
ag113
asg18
L82883L
sbag5
(g976
g7
Ntp2099
Rp2100
(dp2101
g980
g113
sg19
g2097
sg21
L82889L
sg30
I8
sg22
Nsg23
L16L
sg24
g2098
sg18
L82883L
sbag5
(g976
g7
Ntp2102
Rp2103
(dp2104
g980
g17
sg19
S'\xec[\xc3'
p2105
sg21
L45087L
sg30
I0
sg22
Nsg23
L8L
sg24
(lp2106
g14
ag17
asg18
L45085L
sbag5
(g976
g7
Ntp2107
Rp2108
(dp2109
g980
g27
sg19
S'\xff\x83\xc4 \x89;[^_\xc3'
p2110
sg21
L65189L
sg30
I8
sg22
Nsg23
L16L
sg24
(lp2111
g27
ag17
ag113
asg18
L65180L
sbag5
(g976
g7
Ntp2112
Rp2113
(dp2114
g980
g17
sg19
g2110
sg21
L65189L
sg30
I0
sg22
Nsg23
L16L
sg24
g2111
sg18
L65180L
sbag5
(g976
g7
Ntp2115
Rp2116
(dp2117
g980
g113
sg19
g2110
sg21
L65189L
sg30
I4
sg22
Nsg23
L16L
sg24
g2111
sg18
L65180L
sbag5
(g976
g7
Ntp2118
Rp2119
(dp2120
g980
g27
sg19
S'\xff\x83\xc4\x10[^_\xc3'
p2121
sg21
L18765L
sg30
I0
sg22
Nsg23
L8L
sg24
(lp2122
g27
asg18
L18758L
sbag5
(g976
g7
Ntp2123
Rp2124
(dp2125
g980
g27
sg19
S'\xff\x83\xc4 [^_\xc3'
p2126
sg21
L44001L
sg30
I0
sg22
Nsg23
L8L
sg24
(lp2127
g27
asg18
L43994L
sbag5
(g976
g7
Ntp2128
Rp2129
(dp2130
g980
g27
sg19
S'\xff\x83\xc4<[^_]\xc3'
p2131
sg21
L48977L
sg30
I0
sg22
Nsg23
L12L
sg24
(lp2132
g27
ag29
asg18
L48969L
sbag5
(g976
g7
Ntp2133
Rp2134
(dp2135
g980
g29
sg19
g2131
sg21
L48977L
sg30
I4
sg22
Nsg23
L12L
sg24
g2132
sg18
L48969L
sbag5
(g976
g7
Ntp2136
Rp2137
(dp2138
g980
g113
sg19
S'\xff\x83\xc4\x10\x83\xc4\x04[^\xc3'
p2139
sg21
L17923L
sg30
I0
sg22
Nsg23
L8L
sg24
(lp2140
g14
ag113
asg18
L17914L
sbag5
(g976
g7
Ntp2141
Rp2142
(dp2143
g980
g17
sg19
S'\xff\x83\xc4\x101\xc0\x83\xc4\x04[^\xc3'
p2144
sg21
L76371L
sg30
I4
sg22
Nsg23
L16L
sg24
(lp2145
g17
ag113
asg18
L76360L
sbag5
(g976
g7
Ntp2146
Rp2147
(dp2148
g980
g113
sg19
g2144
sg21
L76371L
sg30
I8
sg22
Nsg23
L16L
sg24
g2145
sg18
L76360L
sbag5
(g976
g7
Ntp2149
Rp2150
(dp2151
g980
g27
sg19
S'@_\n\x0e\x14A\xc3'
p2152
sg21
L117166L
sg30
I0
sg22
Nsg23
L8L
sg24
(lp2153
g27
ag14
ag39
asg18
L117160L
sbag5
(g976
g7
Ntp2154
Rp2155
(dp2156
g980
g41
sg19
S'@Z\n\x0e\x14A\xc3'
p2157
sg21
L128077L
sg30
I0
sg22
Nsg23
L8L
sg24
(lp2158
g14
ag41
ag39
asg18
L128071L
sbag5
(g976
g7
Ntp2159
Rp2160
(dp2161
g980
g41
sg19
S'@Z\x0e0l\n\x0e\x14C\xc3'
p2162
sg21
L116325L
sg30
I0
sg22
Nsg23
L4L
sg24
(lp2163
g14
ag41
asg18
L116316L
sbag5
(g976
g7
Ntp2164
Rp2165
(dp2166
g980
g113
sg19
S'C\x0c[^\t\xc2\x0f\x94\xc0\xc3'
p2167
sg21
L16131L
sg30
I0
sg22
Nsg23
L8L
sg24
(lp2168
g14
ag41
ag17
ag113
asg18
L16122L
sbag5
(g976
g7
Ntp2169
Rp2170
(dp2171
g980
g27
sg19
S'F\x10\x00\x00\x00\x00[^_\xc3'
p2172
sg21
L50077L
sg30
I0
sg22
Nsg23
L8L
sg24
(lp2173
g27
ag113
asg18
L50068L
sbag5
(g976
g7
Ntp2174
Rp2175
(dp2176
g980
g27
sg19
g928
sg21
L59977L
sg30
I8
sg22
Nsg23
L16L
sg24
g929
sg18
L59965L
sbag5
(g976
g7
Ntp2177
Rp2178
(dp2179
g980
g17
sg19
g928
sg21
L59977L
sg30
I0
sg22
Nsg23
L16L
sg24
g929
sg18
L59965L
sbag5
(g976
g7
Ntp2180
Rp2181
(dp2182
g980
g113
sg19
g928
sg21
L59977L
sg30
I4
sg22
Nsg23
L16L
sg24
g929
sg18
L59965L
sbag5
(g976
g7
Ntp2183
Rp2184
(dp2185
g980
g27
sg19
g933
sg21
L59873L
sg30
I8
sg22
Nsg23
L16L
sg24
g934
sg18
L59861L
sbag5
(g976
g7
Ntp2186
Rp2187
(dp2188
g980
g17
sg19
g933
sg21
L59873L
sg30
I0
sg22
Nsg23
L16L
sg24
g934
sg18
L59861L
sbag5
(g976
g7
Ntp2189
Rp2190
(dp2191
g980
g113
sg19
g933
sg21
L59873L
sg30
I4
sg22
Nsg23
L16L
sg24
g934
sg18
L59861L
sbag5
(g976
g7
Ntp2192
Rp2193
(dp2194
g980
g17
sg19
g465
sg21
L48190L
sg30
I0
sg22
Nsg23
L12L
sg24
g466
sg18
L48180L
sbag5
(g976
g7
Ntp2195
Rp2196
(dp2197
g980
g113
sg19
g465
sg21
L48190L
sg30
I4
sg22
Nsg23
L12L
sg24
g466
sg18
L48180L
sbag5
(g976
g7
Ntp2198
Rp2199
(dp2200
g980
g27
sg19
S'\x8dt&\x001\xc0[^_\xc3'
p2201
sg21
L16941L
sg30
I8
sg22
Nsg23
L16L
sg24
(lp2202
g27
ag14
ag17
ag113
asg18
L16932L
sbag5
(g976
g7
Ntp2203
Rp2204
(dp2205
g980
g17
sg19
g2201
sg21
L16941L
sg30
I0
sg22
Nsg23
L16L
sg24
g2202
sg18
L16932L
sbag5
(g976
g7
Ntp2206
Rp2207
(dp2208
g980
g113
sg19
g2201
sg21
L16941L
sg30
I4
sg22
Nsg23
L16L
sg24
g2202
sg18
L16932L
sbag5
(g976
g7
Ntp2209
Rp2210
(dp2211
g980
g17
sg19
S'\x8dt&\x001\xc0[^\xc3'
p2212
sg21
L46380L
sg30
I0
sg22
Nsg23
L12L
sg24
(lp2213
g14
ag17
ag113
asg18
L46372L
sbag5
(g976
g7
Ntp2214
Rp2215
(dp2216
g980
g113
sg19
g2212
sg21
L46380L
sg30
I4
sg22
Nsg23
L12L
sg24
g2213
sg18
L46372L
sbag5
(g976
g7
Ntp2217
Rp2218
(dp2219
g980
g27
sg19
S'\xac\x04\x00\x00[^_]\xc3'
p2220
sg21
L68032L
sg30
I0
sg22
Nsg23
L12L
sg24
(lp2221
g27
ag14
ag29
ag113
asg18
L68024L
sbag5
(g976
g7
Ntp2222
Rp2223
(dp2224
g980
g29
sg19
g2220
sg21
L68032L
sg30
I4
sg22
Nsg23
L12L
sg24
g2221
sg18
L68024L
sbag5
(g976
g7
Ntp2225
Rp2226
(dp2227
g980
g27
sg19
S'\xac\x00\x00\x00[^_]\xc3'
p2228
sg21
L52980L
sg30
I0
sg22
Nsg23
L12L
sg24
(lp2229
g27
ag14
ag29
ag113
asg18
L52972L
sbag5
(g976
g7
Ntp2230
Rp2231
(dp2232
g980
g29
sg19
g2228
sg21
L52980L
sg30
I4
sg22
Nsg23
L12L
sg24
g2229
sg18
L52972L
sbag5
(g976
g7
Ntp2233
Rp2234
(dp2235
g980
g27
sg19
S'\xb0@_\n\x0e\x14A\xc3'
p2236
sg21
L117166L
sg30
I0
sg22
Nsg23
L8L
sg24
(lp2237
g27
ag14
ag39
asg18
L117159L
sbag5
(g976
g7
Ntp2238
Rp2239
(dp2240
g980
g17
sg19
S'\xb0k\x00\x00\x83\xc4\x18[\xc3'
p2241
sg21
L18836L
sg30
I24
sg22
Nsg23
L32L
sg24
(lp2242
g14
ag17
asg18
L18828L
sbag5
(g976
g7
Ntp2243
Rp2244
(dp2245
g980
g27
sg19
S'\xb0\x89\xd8[^_]\xc3'
p2246
sg21
L47654L
sg30
I0
sg22
Nsg23
L12L
sg24
(lp2247
g27
ag14
ag29
asg18
L47647L
sbag5
(g976
g7
Ntp2248
Rp2249
(dp2250
g980
g29
sg19
g2246
sg21
L47654L
sg30
I4
sg22
Nsg23
L12L
sg24
g2247
sg18
L47647L
sbag5
(g976
g7
Ntp2251
Rp2252
(dp2253
g980
g27
sg19
S'\xa0\x02\x00\x00[^_\xc3'
p2254
sg21
L28335L
sg30
I4
sg22
Nsg23
L12L
sg24
(lp2255
g27
ag14
ag113
asg18
L28328L
sbag5
(g976
g7
Ntp2256
Rp2257
(dp2258
g980
g113
sg19
g2254
sg21
L28335L
sg30
I0
sg22
Nsg23
L12L
sg24
g2255
sg18
L28328L
sbag5
(g976
g7
Ntp2259
Rp2260
(dp2261
g980
g17
sg19
S'\x88B\t[\xc3'
p2262
sg21
L45721L
sg30
I0
sg22
Nsg23
L8L
sg24
(lp2263
g17
asg18
L45717L
sbag5
(g976
g7
Ntp2264
Rp2265
(dp2266
g980
g27
sg19
S'\x88~\xff\xff\x83\xc4\x10[^_\xc3'
p2267
sg21
L40734L
sg30
I0
sg22
Nsg23
L8L
sg24
(lp2268
g27
asg18
L40724L
sbag5
(g976
g7
Ntp2269
Rp2270
(dp2271
g980
g17
sg19
g475
sg21
L65088L
sg30
I4
sg22
Nsg23
L16L
sg24
g476
sg18
L65077L
sbag5
(g976
g7
Ntp2272
Rp2273
(dp2274
g980
g113
sg19
g475
sg21
L65088L
sg30
I8
sg22
Nsg23
L16L
sg24
g476
sg18
L65077L
sbag5
(g976
g7
Ntp2275
Rp2276
(dp2277
g980
g17
sg19
g483
sg21
L65088L
sg30
I4
sg22
Nsg23
L16L
sg24
g484
sg18
L65080L
sbag5
(g976
g7
Ntp2278
Rp2279
(dp2280
g980
g113
sg19
g483
sg21
L65088L
sg30
I8
sg22
Nsg23
L16L
sg24
g484
sg18
L65080L
sbag5
(g976
g7
Ntp2281
Rp2282
(dp2283
g980
g27
sg19
g493
sg21
L65189L
sg30
I8
sg22
Nsg23
L16L
sg24
g494
sg18
L65184L
sbag5
(g976
g7
Ntp2284
Rp2285
(dp2286
g980
g17
sg19
g493
sg21
L65189L
sg30
I0
sg22
Nsg23
L16L
sg24
g494
sg18
L65184L
sbag5
(g976
g7
Ntp2287
Rp2288
(dp2289
g980
g113
sg19
g493
sg21
L65189L
sg30
I4
sg22
Nsg23
L16L
sg24
g494
sg18
L65184L
sbag5
(g976
g7
Ntp2290
Rp2291
(dp2292
g980
g17
sg19
g498
sg21
L64969L
sg30
I0
sg22
Nsg23
L12L
sg24
g499
sg18
L64965L
sbag5
(g976
g7
Ntp2293
Rp2294
(dp2295
g980
g113
sg19
g498
sg21
L64969L
sg30
I4
sg22
Nsg23
L12L
sg24
g499
sg18
L64965L
sbag5
(g976
g7
Ntp2296
Rp2297
(dp2298
g980
g17
sg19
g503
sg21
L48190L
sg30
I0
sg22
Nsg23
L12L
sg24
g504
sg18
L48184L
sbag5
(g976
g7
Ntp2299
Rp2300
(dp2301
g980
g113
sg19
g503
sg21
L48190L
sg30
I4
sg22
Nsg23
L12L
sg24
g504
sg18
L48184L
sbag5
(g976
g7
Ntp2302
Rp2303
(dp2304
g980
g27
sg19
S'\xc7F\x10\x00\x00\x00\x00[^_\xc3'
p2305
sg21
L50077L
sg30
I8
sg22
Nsg23
L16L
sg24
(lp2306
g27
ag17
ag113
asg18
L50067L
sbag5
(g976
g7
Ntp2307
Rp2308
(dp2309
g980
g17
sg19
g2305
sg21
L50077L
sg30
I0
sg22
Nsg23
L16L
sg24
g2306
sg18
L50067L
sbag5
(g976
g7
Ntp2310
Rp2311
(dp2312
g980
g113
sg19
g2305
sg21
L50077L
sg30
I4
sg22
Nsg23
L16L
sg24
g2306
sg18
L50067L
sbag5
(g976
g7
Ntp2313
Rp2314
(dp2315
g980
g27
sg19
S'\xb8\xff\xff\xff\xff[^_]\xc3'
p2316
sg21
L29468L
sg30
I8
sg22
Nsg23
L20L
sg24
(lp2317
g27
ag14
ag29
ag17
ag113
asg18
L29459L
sbag5
(g976
g7
Ntp2318
Rp2319
(dp2320
g980
g29
sg19
g2316
sg21
L29468L
sg30
I12
sg22
Nsg23
L20L
sg24
g2317
sg18
L29459L
sbag5
(g976
g7
Ntp2321
Rp2322
(dp2323
g980
g17
sg19
g2316
sg21
L29468L
sg30
I0
sg22
Nsg23
L20L
sg24
g2317
sg18
L29459L
sbag5
(g976
g7
Ntp2324
Rp2325
(dp2326
g980
g113
sg19
g2316
sg21
L29468L
sg30
I4
sg22
Nsg23
L20L
sg24
g2317
sg18
L29459L
sbag5
(g976
g7
Ntp2327
Rp2328
(dp2329
g980
g17
sg19
S'\xb8\xff\xff\xff\xff[^\xc3'
p2330
sg21
L39671L
sg30
I0
sg22
Nsg23
L12L
sg24
(lp2331
g14
ag17
ag113
asg18
L39664L
sbag5
(g976
g7
Ntp2332
Rp2333
(dp2334
g980
g113
sg19
g2330
sg21
L39671L
sg30
I4
sg22
Nsg23
L12L
sg24
g2331
sg18
L39664L
sbag5
(g976
g7
Ntp2335
Rp2336
(dp2337
g980
g27
sg19
S'\xb8\xff\xff\xff\xff^_\xc3'
p2338
sg21
L29616L
sg30
I4
sg22
Nsg23
L12L
sg24
(lp2339
g27
ag14
ag113
asg18
L29609L
sbag5
(g976
g7
Ntp2340
Rp2341
(dp2342
g980
g113
sg19
g2338
sg21
L29616L
sg30
I0
sg22
Nsg23
L12L
sg24
g2339
sg18
L29609L
sbag5
(g976
g7
Ntp2343
Rp2344
(dp2345
g980
g17
sg19
g622
sg21
L45258L
sg30
I4
sg22
Nsg23
L16L
sg24
g623
sg18
L45248L
sbag5
(g976
g7
Ntp2346
Rp2347
(dp2348
g980
g113
sg19
g622
sg21
L45258L
sg30
I8
sg22
Nsg23
L16L
sg24
g623
sg18
L45248L
sbag5
(g976
g7
Ntp2349
Rp2350
(dp2351
g980
g17
sg19
g636
sg21
L48199L
sg30
I0
sg22
Nsg23
L12L
sg24
g637
sg18
L48192L
sbag5
(g976
g7
Ntp2352
Rp2353
(dp2354
g980
g113
sg19
g636
sg21
L48199L
sg30
I4
sg22
Nsg23
L12L
sg24
g637
sg18
L48192L
sbag5
(g976
g7
Ntp2355
Rp2356
(dp2357
g980
g27
sg19
g641
sg21
L81304L
sg30
I4
sg22
Nsg23
L16L
sg24
g642
sg18
L81296L
sbag5
(g976
g7
Ntp2358
Rp2359
(dp2360
g980
g29
sg19
g641
sg21
L81304L
sg30
I8
sg22
Nsg23
L16L
sg24
g642
sg18
L81296L
sbag5
(g976
g7
Ntp2361
Rp2362
(dp2363
g980
g113
sg19
g641
sg21
L81304L
sg30
I0
sg22
Nsg23
L16L
sg24
g642
sg18
L81296L
sbag5
(g976
g7
Ntp2364
Rp2365
(dp2366
g980
g27
sg19
g649
sg21
L30309L
sg30
I4
sg22
Nsg23
L12L
sg24
g650
sg18
L30302L
sbag5
(g976
g7
Ntp2367
Rp2368
(dp2369
g980
g113
sg19
g649
sg21
L30309L
sg30
I0
sg22
Nsg23
L12L
sg24
g650
sg18
L30302L
sbag5
(g976
g7
Ntp2370
Rp2371
(dp2372
g980
g17
sg19
g823
sg21
L49260L
sg30
I4
sg22
Nsg23
L16L
sg24
g824
sg18
L49253L
sbag5
(g976
g7
Ntp2373
Rp2374
(dp2375
g980
g113
sg19
g823
sg21
L49260L
sg30
I8
sg22
Nsg23
L16L
sg24
g824
sg18
L49253L
sbag5
(g976
g7
Ntp2376
Rp2377
(dp2378
g980
g27
sg19
g833
sg21
L49077L
sg30
I8
sg22
Nsg23
L16L
sg24
g834
sg18
L49072L
sbag5
(g976
g7
Ntp2379
Rp2380
(dp2381
g980
g17
sg19
g833
sg21
L49077L
sg30
I0
sg22
Nsg23
L16L
sg24
g834
sg18
L49072L
sbag5
(g976
g7
Ntp2382
Rp2383
(dp2384
g980
g113
sg19
g833
sg21
L49077L
sg30
I4
sg22
Nsg23
L16L
sg24
g834
sg18
L49072L
sbag5
(g976
g7
Ntp2385
Rp2386
(dp2387
g980
g14
sg19
S'\x8b\x04$\xc3'
p2388
sg21
L43317L
sg30
I0
sg22
Nsg23
L4L
sg24
(lp2389
g14
asg18
L43314L
sbag5
(g976
g7
Ntp2390
Rp2391
(dp2392
g980
g27
sg19
S'\x89\xe8[^_]\xc3'
p2393
sg21
L29266L
sg30
I8
sg22
Nsg23
L20L
sg24
(lp2394
g27
ag14
ag29
ag17
ag113
asg18
L29260L
sbag5
(g976
g7
Ntp2395
Rp2396
(dp2397
g980
g29
sg19
g2393
sg21
L29266L
sg30
I12
sg22
Nsg23
L20L
sg24
g2394
sg18
L29260L
sbag5
(g976
g7
Ntp2398
Rp2399
(dp2400
g980
g17
sg19
g2393
sg21
L29266L
sg30
I0
sg22
Nsg23
L20L
sg24
g2394
sg18
L29260L
sbag5
(g976
g7
Ntp2401
Rp2402
(dp2403
g980
g113
sg19
g2393
sg21
L29266L
sg30
I4
sg22
Nsg23
L20L
sg24
g2394
sg18
L29260L
sbag5
(g976
g7
Ntp2404
Rp2405
(dp2406
g980
g27
sg19
S'\x89\xe8^_]\xc3'
p2407
sg21
L82772L
sg30
I4
sg22
Nsg23
L16L
sg24
(lp2408
g27
ag14
ag29
ag113
asg18
L82767L
sbag5
(g976
g7
Ntp2409
Rp2410
(dp2411
g980
g29
sg19
g2407
sg21
L82772L
sg30
I8
sg22
Nsg23
L16L
sg24
g2408
sg18
L82767L
sbag5
(g976
g7
Ntp2412
Rp2413
(dp2414
g980
g113
sg19
g2407
sg21
L82772L
sg30
I0
sg22
Nsg23
L16L
sg24
g2408
sg18
L82767L
sbag5
(g976
g7
Ntp2415
Rp2416
(dp2417
g980
g27
sg19
S'\x89\xd8[^_]\xc3'
p2418
sg21
L20762L
sg30
I8
sg22
Nsg23
L20L
sg24
(lp2419
g27
ag14
ag29
ag17
ag113
asg18
L20756L
sbag5
(g976
g7
Ntp2420
Rp2421
(dp2422
g980
g29
sg19
g2418
sg21
L20762L
sg30
I12
sg22
Nsg23
L20L
sg24
g2419
sg18
L20756L
sbag5
(g976
g7
Ntp2423
Rp2424
(dp2425
g980
g17
sg19
g2418
sg21
L20762L
sg30
I0
sg22
Nsg23
L20L
sg24
g2419
sg18
L20756L
sbag5
(g976
g7
Ntp2426
Rp2427
(dp2428
g980
g113
sg19
g2418
sg21
L20762L
sg30
I4
sg22
Nsg23
L20L
sg24
g2419
sg18
L20756L
sbag5
(g976
g7
Ntp2429
Rp2430
(dp2431
g980
g27
sg19
S'\x89\xf8[^_]\xc3'
p2432
sg21
L43529L
sg30
I8
sg22
Nsg23
L20L
sg24
(lp2433
g27
ag14
ag29
ag17
ag113
asg18
L43523L
sbag5
(g976
g7
Ntp2434
Rp2435
(dp2436
g980
g29
sg19
g2432
sg21
L43529L
sg30
I12
sg22
Nsg23
L20L
sg24
g2433
sg18
L43523L
sbag5
(g976
g7
Ntp2437
Rp2438
(dp2439
g980
g17
sg19
g2432
sg21
L43529L
sg30
I0
sg22
Nsg23
L20L
sg24
g2433
sg18
L43523L
sbag5
(g976
g7
Ntp2440
Rp2441
(dp2442
g980
g113
sg19
g2432
sg21
L43529L
sg30
I4
sg22
Nsg23
L20L
sg24
g2433
sg18
L43523L
sbag5
(g976
g7
Ntp2443
Rp2444
(dp2445
g980
g27
sg19
S'\x89\xf8[^_\xc3'
p2446
sg21
L44869L
sg30
I8
sg22
Nsg23
L16L
sg24
(lp2447
g27
ag14
ag17
ag113
asg18
L44864L
sbag5
(g976
g7
Ntp2448
Rp2449
(dp2450
g980
g17
sg19
g2446
sg21
L44869L
sg30
I0
sg22
Nsg23
L16L
sg24
g2447
sg18
L44864L
sbag5
(g976
g7
Ntp2451
Rp2452
(dp2453
g980
g113
sg19
g2446
sg21
L44869L
sg30
I4
sg22
Nsg23
L16L
sg24
g2447
sg18
L44864L
sbag5
(g976
g7
Ntp2454
Rp2455
(dp2456
g980
g27
sg19
S'\x89\xf8^_]\xc3'
p2457
sg21
L43574L
sg30
I4
sg22
Nsg23
L16L
sg24
(lp2458
g27
ag14
ag29
ag113
asg18
L43569L
sbag5
(g976
g7
Ntp2459
Rp2460
(dp2461
g980
g29
sg19
g2457
sg21
L43574L
sg30
I8
sg22
Nsg23
L16L
sg24
g2458
sg18
L43569L
sbag5
(g976
g7
Ntp2462
Rp2463
(dp2464
g980
g113
sg19
g2457
sg21
L43574L
sg30
I0
sg22
Nsg23
L16L
sg24
g2458
sg18
L43569L
sbag5
(g976
g7
Ntp2465
Rp2466
(dp2467
g980
g17
sg19
g938
sg21
L45168L
sg30
I0
sg22
Nsg23
L12L
sg24
g939
sg18
L45164L
sbag5
(g976
g7
Ntp2468
Rp2469
(dp2470
g980
g113
sg19
g938
sg21
L45168L
sg30
I4
sg22
Nsg23
L12L
sg24
g939
sg18
L45164L
sbag5
(g976
g7
Ntp2471
Rp2472
(dp2473
g980
g17
sg19
g943
sg21
L81965L
sg30
I0
sg22
Nsg23
L8L
sg24
g944
sg18
L81962L
sbag5
(g976
g7
Ntp2474
Rp2475
(dp2476
g980
g27
sg19
S'\x89\xf0[^_]\xc3'
p2477
sg21
L24681L
sg30
I8
sg22
Nsg23
L20L
sg24
(lp2478
g27
ag14
ag29
ag17
ag113
asg18
L24675L
sbag5
(g976
g7
Ntp2479
Rp2480
(dp2481
g980
g29
sg19
g2477
sg21
L24681L
sg30
I12
sg22
Nsg23
L20L
sg24
g2478
sg18
L24675L
sbag5
(g976
g7
Ntp2482
Rp2483
(dp2484
g980
g17
sg19
g2477
sg21
L24681L
sg30
I0
sg22
Nsg23
L20L
sg24
g2478
sg18
L24675L
sbag5
(g976
g7
Ntp2485
Rp2486
(dp2487
g980
g113
sg19
g2477
sg21
L24681L
sg30
I4
sg22
Nsg23
L20L
sg24
g2478
sg18
L24675L
sbag5
(g976
g7
Ntp2488
Rp2489
(dp2490
g980
g27
sg19
S'\x89\xf0[^_\xc3'
p2491
sg21
L49069L
sg30
I8
sg22
Nsg23
L16L
sg24
(lp2492
g27
ag14
ag17
ag113
asg18
L49064L
sbag5
(g976
g7
Ntp2493
Rp2494
(dp2495
g980
g17
sg19
g2491
sg21
L49069L
sg30
I0
sg22
Nsg23
L16L
sg24
g2492
sg18
L49064L
sbag5
(g976
g7
Ntp2496
Rp2497
(dp2498
g980
g113
sg19
g2491
sg21
L49069L
sg30
I4
sg22
Nsg23
L16L
sg24
g2492
sg18
L49064L
sbag5
(g976
g7
Ntp2499
Rp2500
(dp2501
g980
g17
sg19
S'\x89\xf0[^\xc3'
p2502
sg21
L49525L
sg30
I0
sg22
Nsg23
L12L
sg24
(lp2503
g14
ag17
ag113
asg18
L49521L
sbag5
(g976
g7
Ntp2504
Rp2505
(dp2506
g980
g113
sg19
g2502
sg21
L49525L
sg30
I4
sg22
Nsg23
L12L
sg24
g2503
sg18
L49521L
sbag5
(g976
g7
Ntp2507
Rp2508
(dp2509
g980
g29
sg19
S'\x8b,$\xc3'
p2510
sg21
L43329L
sg30
I0
sg22
Nsg23
L4L
sg24
(lp2511
g29
asg18
L43326L
sbag5
(g976
g7
Ntp2512
Rp2513
(dp2514
g980
g17
sg19
S'\x8b\x1c$\xc3'
p2515
sg21
L15715L
sg30
I0
sg22
Nsg23
L4L
sg24
(lp2516
g17
asg18
L15712L
sbag5
(g976
g7
Ntp2517
Rp2518
(dp2519
g980
g27
sg19
S'\x8b<$\xc3'
p2520
sg21
L43325L
sg30
I0
sg22
Nsg23
L4L
sg24
(lp2521
g27
asg18
L43322L
sbag5
(g976
g7
Ntp2522
Rp2523
(dp2524
g980
g27
sg19
g953
sg21
L44887L
sg30
I8
sg22
Nsg23
L16L
sg24
g954
sg18
L44880L
sbag5
(g976
g7
Ntp2525
Rp2526
(dp2527
g980
g17
sg19
g953
sg21
L44887L
sg30
I0
sg22
Nsg23
L16L
sg24
g954
sg18
L44880L
sbag5
(g976
g7
Ntp2528
Rp2529
(dp2530
g980
g113
sg19
g953
sg21
L44887L
sg30
I4
sg22
Nsg23
L16L
sg24
g954
sg18
L44880L
sbag5
(g976
g7
Ntp2531
Rp2532
(dp2533
g980
g17
sg19
g671
sg21
L81965L
sg30
I8
sg22
Nsg23
L16L
sg24
g672
sg18
L81954L
sbag5
(g976
g7
Ntp2534
Rp2535
(dp2536
g980
g17
sg19
g841
sg21
L47739L
sg30
I4
sg22
Nsg23
L16L
sg24
g842
sg18
L47729L
sbag5
(g976
g7
Ntp2537
Rp2538
(dp2539
g980
g113
sg19
g841
sg21
L47739L
sg30
I8
sg22
Nsg23
L16L
sg24
g842
sg18
L47729L
sbag5
(g976
g7
Ntp2540
Rp2541
(dp2542
g980
g41
sg19
S'\x8b\x14$\xc3'
p2543
sg21
L16031L
sg30
I0
sg22
Nsg23
L4L
sg24
(lp2544
g41
asg18
L16028L
sbag5
(g976
g7
Ntp2545
Rp2546
(dp2547
g980
g113
sg19
S'\x8b4$\xc3'
p2548
sg21
L43321L
sg30
I0
sg22
Nsg23
L4L
sg24
(lp2549
g113
asg18
L43318L
sbag5
(g976
g7
Ntp2550
Rp2551
(dp2552
g980
g27
sg19
S'\xf7\xd8^_]\xc3'
p2553
sg21
L83591L
sg30
I4
sg22
Nsg23
L16L
sg24
(lp2554
g27
ag14
ag29
ag113
asg18
L83586L
sbag5
(g976
g7
Ntp2555
Rp2556
(dp2557
g980
g29
sg19
g2553
sg21
L83591L
sg30
I8
sg22
Nsg23
L16L
sg24
g2554
sg18
L83586L
sbag5
(g976
g7
Ntp2558
Rp2559
(dp2560
g980
g113
sg19
g2553
sg21
L83591L
sg30
I0
sg22
Nsg23
L16L
sg24
g2554
sg18
L83586L
sbag5
(g976
g7
Ntp2561
Rp2562
(dp2563
g980
g17
sg19
g679
sg21
L48199L
sg30
I0
sg22
Nsg23
L12L
sg24
g680
sg18
L48191L
sbag5
(g976
g7
Ntp2564
Rp2565
(dp2566
g980
g113
sg19
g679
sg21
L48199L
sg30
I4
sg22
Nsg23
L12L
sg24
g680
sg18
L48191L
sbag5
(g976
g7
Ntp2567
Rp2568
(dp2569
g980
g27
sg19
g846
sg21
L49077L
sg30
I8
sg22
Nsg23
L16L
sg24
g847
sg18
L49071L
sbag5
(g976
g7
Ntp2570
Rp2571
(dp2572
g980
g17
sg19
g846
sg21
L49077L
sg30
I0
sg22
Nsg23
L16L
sg24
g847
sg18
L49071L
sbag5
(g976
g7
Ntp2573
Rp2574
(dp2575
g980
g113
sg19
g846
sg21
L49077L
sg30
I4
sg22
Nsg23
L16L
sg24
g847
sg18
L49071L
sbag5
(g976
g7
Ntp2576
Rp2577
(dp2578
g980
g17
sg19
S'\x90\x8b\x1c$\xc3'
p2579
sg21
L15731L
sg30
I0
sg22
Nsg23
L4L
sg24
(lp2580
g17
asg18
L15727L
sbag5
(g976
g7
Ntp2581
Rp2582
(dp2583
g980
g17
sg19
S'\x90f\x90\x8b\x1c$\xc3'
p2584
sg21
L15731L
sg30
I0
sg22
Nsg23
L4L
sg24
(lp2585
g17
asg18
L15725L
sbag5
(g976
g7
Ntp2586
Rp2587
(dp2588
g980
g17
sg19
S'\x90f\x90f\x90\x8b\x1c$\xc3'
p2589
sg21
L15731L
sg30
I0
sg22
Nsg23
L4L
sg24
(lp2590
g17
asg18
L15723L
sbag5
(g976
g7
Ntp2591
Rp2592
(dp2593
g980
g17
sg19
S'\x90f\x90f\x90f\x90\x8b\x1c$\xc3'
p2594
sg21
L15731L
sg30
I0
sg22
Nsg23
L4L
sg24
(lp2595
g17
asg18
L15721L
sbag5
(g976
g7
Ntp2596
Rp2597
(dp2598
g980
g27
sg19
g695
sg21
L47528L
sg30
I8
sg22
Nsg23
L16L
sg24
g696
sg18
L47519L
sbag5
(g976
g7
Ntp2599
Rp2600
(dp2601
g980
g17
sg19
g695
sg21
L47528L
sg30
I0
sg22
Nsg23
L16L
sg24
g696
sg18
L47519L
sbag5
(g976
g7
Ntp2602
Rp2603
(dp2604
g980
g113
sg19
g695
sg21
L47528L
sg30
I4
sg22
Nsg23
L16L
sg24
g696
sg18
L47519L
sbag5
(g976
g7
Ntp2605
Rp2606
(dp2607
g980
g29
sg19
S'\x0c1\xc0[^_]\xc3'
p2608
sg21
L56331L
sg30
I0
sg22
Nsg23
L8L
sg24
(lp2609
g14
ag29
asg18
L56324L
sbag5
(g976
g7
Ntp2610
Rp2611
(dp2612
g980
g27
sg19
S'\x0c[\xb8\xff\xff\xff\xff^_\xc3'
p2613
sg21
L30332L
sg30
I4
sg22
Nsg23
L12L
sg24
(lp2614
g27
ag14
ag113
asg18
L30323L
sbag5
(g976
g7
Ntp2615
Rp2616
(dp2617
g980
g113
sg19
g2613
sg21
L30332L
sg30
I0
sg22
Nsg23
L12L
sg24
g2614
sg18
L30323L
sbag5
(g976
g7
Ntp2618
Rp2619
(dp2620
g980
g27
sg19
g700
sg21
L81304L
sg30
I4
sg22
Nsg23
L16L
sg24
g701
sg18
L81294L
sbag5
(g976
g7
Ntp2621
Rp2622
(dp2623
g980
g29
sg19
g700
sg21
L81304L
sg30
I8
sg22
Nsg23
L16L
sg24
g701
sg18
L81294L
sbag5
(g976
g7
Ntp2624
Rp2625
(dp2626
g980
g113
sg19
g700
sg21
L81304L
sg30
I0
sg22
Nsg23
L16L
sg24
g701
sg18
L81294L
sbag5
(g976
g7
Ntp2627
Rp2628
(dp2629
g980
g113
sg19
S'\x0c[^\t\xc2\x0f\x94\xc0\xc3'
p2630
sg21
L16131L
sg30
I0
sg22
Nsg23
L8L
sg24
(lp2631
g14
ag41
ag113
asg18
L16123L
sbag5
(g976
g7
Ntp2632
Rp2633
(dp2634
g980
g27
sg19
S'\x0c[^_]\xc3'
p2635
sg21
L19856L
sg30
I4
sg22
Nsg23
L16L
sg24
(lp2636
g27
ag14
ag29
ag113
asg18
L19851L
sbag5
(g976
g7
Ntp2637
Rp2638
(dp2639
g980
g29
sg19
g2635
sg21
L19856L
sg30
I8
sg22
Nsg23
L16L
sg24
g2636
sg18
L19851L
sbag5
(g976
g7
Ntp2640
Rp2641
(dp2642
g980
g113
sg19
g2635
sg21
L19856L
sg30
I0
sg22
Nsg23
L16L
sg24
g2636
sg18
L19851L
sbag5
(g976
g7
Ntp2643
Rp2644
(dp2645
g980
g27
sg19
S'\x0ct\x04[^_\xc3'
p2646
sg21
L48715L
sg30
I4
sg22
Nsg23
L12L
sg24
(lp2647
g27
ag14
ag113
asg18
L48709L
sbag5
(g976
g7
Ntp2648
Rp2649
(dp2650
g980
g113
sg19
g2646
sg21
L48715L
sg30
I0
sg22
Nsg23
L12L
sg24
g2647
sg18
L48709L
sbag5
(g976
g7
Ntp2651
Rp2652
(dp2653
g980
g27
sg19
S'\n\x83\xc4\x1c[^_]\xc3'
p2654
sg21
L19654L
sg30
I0
sg22
Nsg23
L12L
sg24
(lp2655
g27
ag14
ag29
asg18
L19646L
sbag5
(g976
g7
Ntp2656
Rp2657
(dp2658
g980
g29
sg19
g2654
sg21
L19654L
sg30
I4
sg22
Nsg23
L12L
sg24
g2655
sg18
L19646L
sbag5
(g976
g7
Ntp2659
Rp2660
(dp2661
g980
g27
sg19
S'\n\x83\xc4,[^_]\xc3'
p2662
sg21
L35974L
sg30
I0
sg22
Nsg23
L12L
sg24
(lp2663
g27
ag14
ag29
asg18
L35966L
sbag5
(g976
g7
Ntp2664
Rp2665
(dp2666
g980
g29
sg19
g2662
sg21
L35974L
sg30
I4
sg22
Nsg23
L12L
sg24
g2663
sg18
L35966L
sbag5
(g976
g7
Ntp2667
Rp2668
(dp2669
g980
g27
sg19
S'\n\x83\xc4<[^_]\xc3'
p2670
sg21
L36136L
sg30
I0
sg22
Nsg23
L12L
sg24
(lp2671
g27
ag14
ag29
asg18
L36128L
sbag5
(g976
g7
Ntp2672
Rp2673
(dp2674
g980
g29
sg19
g2670
sg21
L36136L
sg30
I4
sg22
Nsg23
L12L
sg24
g2671
sg18
L36128L
sbag5
(g976
g7
Ntp2675
Rp2676
(dp2677
g980
g27
sg19
S'\x08\xa8\xff\xff\x83\xc4\x10[^_\xc3'
p2678
sg21
L30110L
sg30
I0
sg22
Nsg23
L8L
sg24
(lp2679
g27
asg18
L30100L
sbag5
(g976
g7
Ntp2680
Rp2681
(dp2682
g980
g27
sg19
S'\x08\x83\xc4\x0c[^_]\xc3'
p2683
sg21
L44366L
sg30
I0
sg22
Nsg23
L12L
sg24
(lp2684
g27
ag29
asg18
L44358L
sbag5
(g976
g7
Ntp2685
Rp2686
(dp2687
g980
g29
sg19
g2683
sg21
L44366L
sg30
I4
sg22
Nsg23
L12L
sg24
g2684
sg18
L44358L
sbag5
(g976
g7
Ntp2688
Rp2689
(dp2690
g980
g27
sg19
S'\x08\x83\xc4\x1c[^_]\xc3'
p2691
sg21
L43870L
sg30
I0
sg22
Nsg23
L12L
sg24
(lp2692
g27
ag29
asg18
L43862L
sbag5
(g976
g7
Ntp2693
Rp2694
(dp2695
g980
g29
sg19
g2691
sg21
L43870L
sg30
I4
sg22
Nsg23
L12L
sg24
g2692
sg18
L43862L
sbag5
(g976
g7
Ntp2696
Rp2697
(dp2698
g980
g27
sg19
S'\x08\x83\xc4L[^_]\xc3'
p2699
sg21
L75914L
sg30
I0
sg22
Nsg23
L12L
sg24
(lp2700
g27
ag29
asg18
L75906L
sbag5
(g976
g7
Ntp2701
Rp2702
(dp2703
g980
g29
sg19
g2699
sg21
L75914L
sg30
I4
sg22
Nsg23
L12L
sg24
g2700
sg18
L75906L
sbag5
(g976
g7
Ntp2704
Rp2705
(dp2706
g980
g27
sg19
S'\x08[^_\xc3'
p2707
sg21
L29587L
sg30
I0
sg22
Nsg23
L8L
sg24
(lp2708
g27
asg18
L29583L
sbag5
(g976
g7
Ntp2709
Rp2710
(dp2711
g980
g27
sg19
S'\r\x83\xc4\x0c[^_]\xc3'
p2712
sg21
L21386L
sg30
I4
sg22
Nsg23
L16L
sg24
(lp2713
g27
ag14
ag29
ag113
asg18
L21378L
sbag5
(g976
g7
Ntp2714
Rp2715
(dp2716
g980
g29
sg19
g2712
sg21
L21386L
sg30
I8
sg22
Nsg23
L16L
sg24
g2713
sg18
L21378L
sbag5
(g976
g7
Ntp2717
Rp2718
(dp2719
g980
g113
sg19
g2712
sg21
L21386L
sg30
I0
sg22
Nsg23
L16L
sg24
g2713
sg18
L21378L
sbag5
(g976
g7
Ntp2720
Rp2721
(dp2722
g980
g113
sg19
S'\r\x83\xc4D[^\xc3'
p2723
sg21
L66968L
sg30
I0
sg22
Nsg23
L8L
sg24
(lp2724
g14
ag113
asg18
L66962L
sbag5
(g976
g7
Ntp2725
Rp2726
(dp2727
g980
g27
sg19
g348
sg21
L82103L
sg30
I0
sg22
Nsg23
L12L
sg24
g349
sg18
L82095L
sbag5
(g976
g7
Ntp2728
Rp2729
(dp2730
g980
g29
sg19
g348
sg21
L82103L
sg30
I4
sg22
Nsg23
L12L
sg24
g349
sg18
L82095L
sbag5
(g976
g7
Ntp2731
Rp2732
(dp2733
g980
g27
sg19
g358
sg21
L22346L
sg30
I0
sg22
Nsg23
L12L
sg24
g359
sg18
L22335L
sbag5
(g976
g7
Ntp2734
Rp2735
(dp2736
g980
g29
sg19
g358
sg21
L22346L
sg30
I4
sg22
Nsg23
L12L
sg24
g359
sg18
L22335L
sbag5
(g976
g7
Ntp2737
Rp2738
(dp2739
g980
g17
sg19
g378
sg21
L47739L
sg30
I0
sg22
Nsg23
L12L
sg24
g379
sg18
L47728L
sbag5
(g976
g7
Ntp2740
Rp2741
(dp2742
g980
g113
sg19
g378
sg21
L47739L
sg30
I4
sg22
Nsg23
L12L
sg24
g379
sg18
L47728L
sbag5
(g976
g7
Ntp2743
Rp2744
(dp2745
g980
g17
sg19
S'\xee\x06\x00\x00\x83\xc4\x08[\xc3'
p2746
sg21
L7478L
sg30
I4
sg22
Nsg23
L12L
sg24
(lp2747
g17
asg18
L7470L
sbag5
(g976
g7
Ntp2748
Rp2749
(dp2750
g980
g17
sg19
g958
sg21
L45168L
sg30
I4
sg22
Nsg23
L16L
sg24
g959
sg18
L45160L
sbag5
(g976
g7
Ntp2751
Rp2752
(dp2753
g980
g113
sg19
g958
sg21
L45168L
sg30
I8
sg22
Nsg23
L16L
sg24
g959
sg18
L45160L
sbag5
(g976
g7
Ntp2754
Rp2755
(dp2756
g980
g29
sg19
S']\n\x0e\x14A\xc3'
p2757
sg21
L123090L
sg30
I0
sg22
Nsg23
L8L
sg24
(lp2758
g14
ag29
ag39
asg18
L123085L
sbag5
(g976
g7
Ntp2759
Rp2760
(dp2761
g980
g29
sg19
S']\n\x0e\x14F\xc3'
p2762
sg21
L118077L
sg30
I0
sg22
Nsg23
L8L
sg24
(lp2763
g14
ag29
ag39
asg18
L118072L
sbag5
(g976
g7
Ntp2764
Rp2765
(dp2766
g980
g29
sg19
S']\xc3'
p2767
sg21
L16360L
sg30
I0
sg22
Nsg23
L8L
sg24
(lp2768
g29
asg18
L16359L
sbag5
(g976
g7
Ntp2769
Rp2770
(dp2771
g980
g27
sg19
S'[\x0fE\xc2^_\xc3'
p2772
sg21
L59918L
sg30
I8
sg22
Nsg23
L16L
sg24
(lp2773
g27
ag17
ag113
asg18
L59912L
sbag5
(g976
g7
Ntp2774
Rp2775
(dp2776
g980
g17
sg19
g2772
sg21
L59918L
sg30
I0
sg22
Nsg23
L16L
sg24
g2773
sg18
L59912L
sbag5
(g976
g7
Ntp2777
Rp2778
(dp2779
g980
g113
sg19
g2772
sg21
L59918L
sg30
I4
sg22
Nsg23
L16L
sg24
g2773
sg18
L59912L
sbag5
(g976
g7
Ntp2780
Rp2781
(dp2782
g980
g27
sg19
S'[\xb8\xff\xff\xff\xff^_\xc3'
p2783
sg21
L29616L
sg30
I8
sg22
Nsg23
L16L
sg24
(lp2784
g27
ag14
ag17
ag113
asg18
L29608L
sbag5
(g976
g7
Ntp2785
Rp2786
(dp2787
g980
g17
sg19
g2783
sg21
L29616L
sg30
I0
sg22
Nsg23
L16L
sg24
g2784
sg18
L29608L
sbag5
(g976
g7
Ntp2788
Rp2789
(dp2790
g980
g113
sg19
g2783
sg21
L29616L
sg30
I4
sg22
Nsg23
L16L
sg24
g2784
sg18
L29608L
sbag5
(g976
g7
Ntp2791
Rp2792
(dp2793
g980
g27
sg19
g722
sg21
L81304L
sg30
I8
sg22
Nsg23
L20L
sg24
g723
sg18
L81295L
sbag5
(g976
g7
Ntp2794
Rp2795
(dp2796
g980
g29
sg19
g722
sg21
L81304L
sg30
I12
sg22
Nsg23
L20L
sg24
g723
sg18
L81295L
sbag5
(g976
g7
Ntp2797
Rp2798
(dp2799
g980
g17
sg19
g722
sg21
L81304L
sg30
I0
sg22
Nsg23
L20L
sg24
g723
sg18
L81295L
sbag5
(g976
g7
Ntp2800
Rp2801
(dp2802
g980
g113
sg19
g722
sg21
L81304L
sg30
I4
sg22
Nsg23
L20L
sg24
g723
sg18
L81295L
sbag5
(g976
g7
Ntp2803
Rp2804
(dp2805
g980
g27
sg19
g727
sg21
L30309L
sg30
I8
sg22
Nsg23
L16L
sg24
g728
sg18
L30301L
sbag5
(g976
g7
Ntp2806
Rp2807
(dp2808
g980
g17
sg19
g727
sg21
L30309L
sg30
I0
sg22
Nsg23
L16L
sg24
g728
sg18
L30301L
sbag5
(g976
g7
Ntp2809
Rp2810
(dp2811
g980
g113
sg19
g727
sg21
L30309L
sg30
I4
sg22
Nsg23
L16L
sg24
g728
sg18
L30301L
sbag5
(g976
g7
Ntp2812
Rp2813
(dp2814
g980
g27
sg19
S'[\x89\xe8^_]\xc3'
p2815
sg21
L82772L
sg30
I8
sg22
Nsg23
L20L
sg24
(lp2816
g27
ag14
ag29
ag17
ag113
asg18
L82766L
sbag5
(g976
g7
Ntp2817
Rp2818
(dp2819
g980
g29
sg19
g2815
sg21
L82772L
sg30
I12
sg22
Nsg23
L20L
sg24
g2816
sg18
L82766L
sbag5
(g976
g7
Ntp2820
Rp2821
(dp2822
g980
g17
sg19
g2815
sg21
L82772L
sg30
I0
sg22
Nsg23
L20L
sg24
g2816
sg18
L82766L
sbag5
(g976
g7
Ntp2823
Rp2824
(dp2825
g980
g113
sg19
g2815
sg21
L82772L
sg30
I4
sg22
Nsg23
L20L
sg24
g2816
sg18
L82766L
sbag5
(g976
g7
Ntp2826
Rp2827
(dp2828
g980
g27
sg19
S'[\x89\xf8^_]\xc3'
p2829
sg21
L43574L
sg30
I8
sg22
Nsg23
L20L
sg24
(lp2830
g27
ag14
ag29
ag17
ag113
asg18
L43568L
sbag5
(g976
g7
Ntp2831
Rp2832
(dp2833
g980
g29
sg19
g2829
sg21
L43574L
sg30
I12
sg22
Nsg23
L20L
sg24
g2830
sg18
L43568L
sbag5
(g976
g7
Ntp2834
Rp2835
(dp2836
g980
g17
sg19
g2829
sg21
L43574L
sg30
I0
sg22
Nsg23
L20L
sg24
g2830
sg18
L43568L
sbag5
(g976
g7
Ntp2837
Rp2838
(dp2839
g980
g113
sg19
g2829
sg21
L43574L
sg30
I4
sg22
Nsg23
L20L
sg24
g2830
sg18
L43568L
sbag5
(g976
g7
Ntp2840
Rp2841
(dp2842
g980
g27
sg19
S'[\xf7\xd8^_]\xc3'
p2843
sg21
L83591L
sg30
I8
sg22
Nsg23
L20L
sg24
(lp2844
g27
ag14
ag29
ag17
ag113
asg18
L83585L
sbag5
(g976
g7
Ntp2845
Rp2846
(dp2847
g980
g29
sg19
g2843
sg21
L83591L
sg30
I12
sg22
Nsg23
L20L
sg24
g2844
sg18
L83585L
sbag5
(g976
g7
Ntp2848
Rp2849
(dp2850
g980
g17
sg19
g2843
sg21
L83591L
sg30
I0
sg22
Nsg23
L20L
sg24
g2844
sg18
L83585L
sbag5
(g976
g7
Ntp2851
Rp2852
(dp2853
g980
g113
sg19
g2843
sg21
L83591L
sg30
I4
sg22
Nsg23
L20L
sg24
g2844
sg18
L83585L
sbag5
(g976
g7
Ntp2854
Rp2855
(dp2856
g980
g17
sg19
S'[\n\x0e\x14A\xc3'
p2857
sg21
L126856L
sg30
I0
sg22
Nsg23
L8L
sg24
(lp2858
g14
ag17
ag39
asg18
L126851L
sbag5
(g976
g7
Ntp2859
Rp2860
(dp2861
g980
g17
sg19
S'[^\x8d\x04\xc2\xc3'
p2862
sg21
L47739L
sg30
I0
sg22
Nsg23
L12L
sg24
(lp2863
g14
ag17
ag113
asg18
L47734L
sbag5
(g976
g7
Ntp2864
Rp2865
(dp2866
g980
g113
sg19
g2862
sg21
L47739L
sg30
I4
sg22
Nsg23
L12L
sg24
g2863
sg18
L47734L
sbag5
(g976
g7
Ntp2867
Rp2868
(dp2869
g980
g17
sg19
g738
sg21
L16131L
sg30
I0
sg22
Nsg23
L12L
sg24
g739
sg18
L16124L
sbag5
(g976
g7
Ntp2870
Rp2871
(dp2872
g980
g113
sg19
g738
sg21
L16131L
sg30
I4
sg22
Nsg23
L12L
sg24
g739
sg18
L16124L
sbag5
(g976
g7
Ntp2873
Rp2874
(dp2875
g980
g27
sg19
S'[^_\x0fE\xc2\xc3'
p2876
sg21
L59873L
sg30
I8
sg22
Nsg23
L16L
sg24
(lp2877
g27
ag17
ag113
asg18
L59867L
sbag5
(g976
g7
Ntp2878
Rp2879
(dp2880
g980
g17
sg19
g2876
sg21
L59873L
sg30
I0
sg22
Nsg23
L16L
sg24
g2877
sg18
L59867L
sbag5
(g976
g7
Ntp2881
Rp2882
(dp2883
g980
g113
sg19
g2876
sg21
L59873L
sg30
I4
sg22
Nsg23
L16L
sg24
g2877
sg18
L59867L
sbag5
(g976
g7
Ntp2884
Rp2885
(dp2886
g980
g27
sg19
S'[^_]\xc3'
p2887
sg21
L16360L
sg30
I8
sg22
Nsg23
L20L
sg24
(lp2888
g27
ag29
ag17
ag113
asg18
L16356L
sbag5
(g976
g7
Ntp2889
Rp2890
(dp2891
g980
g29
sg19
g2887
sg21
L16360L
sg30
I12
sg22
Nsg23
L20L
sg24
g2888
sg18
L16356L
sbag5
(g976
g7
Ntp2892
Rp2893
(dp2894
g980
g17
sg19
g2887
sg21
L16360L
sg30
I0
sg22
Nsg23
L20L
sg24
g2888
sg18
L16356L
sbag5
(g976
g7
Ntp2895
Rp2896
(dp2897
g980
g113
sg19
g2887
sg21
L16360L
sg30
I4
sg22
Nsg23
L20L
sg24
g2888
sg18
L16356L
sbag5
(g976
g7
Ntp2898
Rp2899
(dp2900
g980
g27
sg19
S'[^_\xc3'
p2901
sg21
L16941L
sg30
I8
sg22
Nsg23
L16L
sg24
(lp2902
g27
ag17
ag113
asg18
L16938L
sbag5
(g976
g7
Ntp2903
Rp2904
(dp2905
g980
g17
sg19
g2901
sg21
L16941L
sg30
I0
sg22
Nsg23
L16L
sg24
g2902
sg18
L16938L
sbag5
(g976
g7
Ntp2906
Rp2907
(dp2908
g980
g113
sg19
g2901
sg21
L16941L
sg30
I4
sg22
Nsg23
L16L
sg24
g2902
sg18
L16938L
sbag5
(g976
g7
Ntp2909
Rp2910
(dp2911
g980
g27
sg19
S'[^_\x0f\x94\xc0\xc3'
p2912
sg21
L48725L
sg30
I8
sg22
Nsg23
L16L
sg24
(lp2913
g27
ag14
ag17
ag113
asg18
L48719L
sbag5
(g976
g7
Ntp2914
Rp2915
(dp2916
g980
g17
sg19
g2912
sg21
L48725L
sg30
I0
sg22
Nsg23
L16L
sg24
g2913
sg18
L48719L
sbag5
(g976
g7
Ntp2917
Rp2918
(dp2919
g980
g113
sg19
g2912
sg21
L48725L
sg30
I4
sg22
Nsg23
L16L
sg24
g2913
sg18
L48719L
sbag5
(g976
g7
Ntp2920
Rp2921
(dp2922
g980
g27
sg19
S'[^_\x0f\x95\xc0\xc3'
p2923
sg21
L16953L
sg30
I8
sg22
Nsg23
L16L
sg24
(lp2924
g27
ag14
ag17
ag113
asg18
L16947L
sbag5
(g976
g7
Ntp2925
Rp2926
(dp2927
g980
g17
sg19
g2923
sg21
L16953L
sg30
I0
sg22
Nsg23
L16L
sg24
g2924
sg18
L16947L
sbag5
(g976
g7
Ntp2928
Rp2929
(dp2930
g980
g113
sg19
g2923
sg21
L16953L
sg30
I4
sg22
Nsg23
L16L
sg24
g2924
sg18
L16947L
sbag5
(g976
g7
Ntp2931
Rp2932
(dp2933
g980
g17
sg19
S'[^\xc3'
p2934
sg21
L16108L
sg30
I0
sg22
Nsg23
L12L
sg24
(lp2935
g17
ag113
asg18
L16106L
sbag5
(g976
g7
Ntp2936
Rp2937
(dp2938
g980
g113
sg19
g2934
sg21
L16108L
sg30
I4
sg22
Nsg23
L12L
sg24
g2935
sg18
L16106L
sbag5
(g976
g7
Ntp2939
Rp2940
(dp2941
g980
g27
sg19
S'[\xf3\xa6^\x0f\x95\xc0_\xc3'
p2942
sg21
L16930L
sg30
I8
sg22
Nsg23
L16L
sg24
(lp2943
g27
ag14
ag17
ag113
ag39
asg18
L16922L
sbag5
(g976
g7
Ntp2944
Rp2945
(dp2946
g980
g17
sg19
g2942
sg21
L16930L
sg30
I0
sg22
Nsg23
L16L
sg24
g2943
sg18
L16922L
sbag5
(g976
g7
Ntp2947
Rp2948
(dp2949
g980
g113
sg19
g2942
sg21
L16930L
sg30
I4
sg22
Nsg23
L16L
sg24
g2943
sg18
L16922L
sbag5
(g976
g7
Ntp2950
Rp2951
(dp2952
g980
g17
sg19
S'[\xc3'
p2953
sg21
L7478L
sg30
I0
sg22
Nsg23
L8L
sg24
(lp2954
g17
asg18
L7477L
sbag5
(g976
g7
Ntp2955
Rp2956
(dp2957
g980
g27
sg19
S'[1\xc0^_\xc3'
p2958
sg21
L47491L
sg30
I8
sg22
Nsg23
L16L
sg24
(lp2959
g27
ag14
ag17
ag113
asg18
L47486L
sbag5
(g976
g7
Ntp2960
Rp2961
(dp2962
g980
g17
sg19
g2958
sg21
L47491L
sg30
I0
sg22
Nsg23
L16L
sg24
g2959
sg18
L47486L
sbag5
(g976
g7
Ntp2963
Rp2964
(dp2965
g980
g113
sg19
g2958
sg21
L47491L
sg30
I4
sg22
Nsg23
L16L
sg24
g2959
sg18
L47486L
sbag5
(g976
g7
Ntp2966
Rp2967
(dp2968
g980
g39
sg19
S'Y\x01\x89\xc8\x89\x1e\x0f\xb6Q\x01\x84\xd2u\x1b[^\xc3'
p2969
sg21
L46240L
sg30
I0
sg22
Nsg23
L8L
sg24
(lp2970
g41
ag39
asg18
L46224L
sbag5
(g976
g7
Ntp2971
Rp2972
(dp2973
g980
g27
sg19
S'_\x0fE\xc2\xc3'
p2974
sg21
L59873L
sg30
I0
sg22
Nsg23
L8L
sg24
(lp2975
g27
asg18
L59869L
sbag5
(g976
g7
Ntp2976
Rp2977
(dp2978
g980
g27
sg19
S'_\x0ct\x04[^_\xc3'
p2979
sg21
L48715L
sg30
I8
sg22
Nsg23
L16L
sg24
(lp2980
g27
ag14
ag113
asg18
L48708L
sbag5
(g976
g7
Ntp2981
Rp2982
(dp2983
g980
g113
sg19
g2979
sg21
L48715L
sg30
I4
sg22
Nsg23
L16L
sg24
g2980
sg18
L48708L
sbag5
(g976
g7
Ntp2984
Rp2985
(dp2986
g980
g27
sg19
S'_\n\x0e\x14A\xc3'
p2987
sg21
L117166L
sg30
I0
sg22
Nsg23
L8L
sg24
(lp2988
g27
ag14
asg18
L117161L
sbag5
(g976
g7
Ntp2989
Rp2990
(dp2991
g980
g27
sg19
S'_\n\x0e\x14C\xc3'
p2992
sg21
L134405L
sg30
I0
sg22
Nsg23
L8L
sg24
(lp2993
g27
ag14
ag39
asg18
L134400L
sbag5
(g976
g7
Ntp2994
Rp2995
(dp2996
g980
g27
sg19
S'_]\xc3'
p2997
sg21
L16360L
sg30
I0
sg22
Nsg23
L12L
sg24
(lp2998
g27
ag29
asg18
L16358L
sbag5
(g976
g7
Ntp2999
Rp3000
(dp3001
g980
g29
sg19
g2997
sg21
L16360L
sg30
I4
sg22
Nsg23
L12L
sg24
g2998
sg18
L16358L
sbag5
(g976
g7
Ntp3002
Rp3003
(dp3004
g980
g27
sg19
S'_\xc3'
p3005
sg21
L16930L
sg30
I0
sg22
Nsg23
L8L
sg24
(lp3006
g27
asg18
L16929L
sbag5
(g976
g7
Ntp3007
Rp3008
(dp3009
g980
g27
sg19
S'_\x0f\x94\xc0\xc3'
p3010
sg21
L48725L
sg30
I0
sg22
Nsg23
L8L
sg24
(lp3011
g27
ag14
asg18
L48721L
sbag5
(g976
g7
Ntp3012
Rp3013
(dp3014
g980
g27
sg19
S'_\x0f\x95\xc0\xc3'
p3015
sg21
L16953L
sg30
I0
sg22
Nsg23
L8L
sg24
(lp3016
g27
ag14
asg18
L16949L
sbag5
(g976
g7
Ntp3017
Rp3018
(dp3019
g980
g41
sg19
S'Z\n\x0e\x14A\xc3'
p3020
sg21
L119158L
sg30
I0
sg22
Nsg23
L8L
sg24
(lp3021
g14
ag41
ag39
asg18
L119153L
sbag5
(g976
g7
Ntp3022
Rp3023
(dp3024
g980
g41
sg19
S'Z\x0e0l\n\x0e\x14C\xc3'
p3025
sg21
L116325L
sg30
I0
sg22
Nsg23
L4L
sg24
(lp3026
g14
ag41
asg18
L116317L
sbag5
(g976
g7
Ntp3027
Rp3028
(dp3029
g980
g113
sg19
S'^\x8d\x04\xc2\xc3'
p3030
sg21
L47739L
sg30
I0
sg22
Nsg23
L8L
sg24
(lp3031
g14
ag113
asg18
L47735L
sbag5
(g976
g7
Ntp3032
Rp3033
(dp3034
g980
g113
sg19
S'^\n\x0e\x14A\xc3'
p3035
sg21
L114292L
sg30
I0
sg22
Nsg23
L8L
sg24
(lp3036
g14
ag113
ag39
asg18
L114287L
sbag5
(g976
g7
Ntp3037
Rp3038
(dp3039
g980
g113
sg19
g743
sg21
L16131L
sg30
I0
sg22
Nsg23
L8L
sg24
g744
sg18
L16125L
sbag5
(g976
g7
Ntp3040
Rp3041
(dp3042
g980
g27
sg19
g963
sg21
L59873L
sg30
I4
sg22
Nsg23
L12L
sg24
g964
sg18
L59868L
sbag5
(g976
g7
Ntp3043
Rp3044
(dp3045
g980
g113
sg19
g963
sg21
L59873L
sg30
I0
sg22
Nsg23
L12L
sg24
g964
sg18
L59868L
sbag5
(g976
g7
Ntp3046
Rp3047
(dp3048
g980
g27
sg19
S'^_]\xc3'
p3049
sg21
L16360L
sg30
I4
sg22
Nsg23
L16L
sg24
(lp3050
g27
ag29
ag113
asg18
L16357L
sbag5
(g976
g7
Ntp3051
Rp3052
(dp3053
g980
g29
sg19
g3049
sg21
L16360L
sg30
I8
sg22
Nsg23
L16L
sg24
g3050
sg18
L16357L
sbag5
(g976
g7
Ntp3054
Rp3055
(dp3056
g980
g113
sg19
g3049
sg21
L16360L
sg30
I0
sg22
Nsg23
L16L
sg24
g3050
sg18
L16357L
sbag5
(g976
g7
Ntp3057
Rp3058
(dp3059
g980
g27
sg19
S'^_\xc3'
p3060
sg21
L16941L
sg30
I4
sg22
Nsg23
L12L
sg24
(lp3061
g27
ag113
asg18
L16939L
sbag5
(g976
g7
Ntp3062
Rp3063
(dp3064
g980
g113
sg19
g3060
sg21
L16941L
sg30
I0
sg22
Nsg23
L12L
sg24
g3061
sg18
L16939L
sbag5
(g976
g7
Ntp3065
Rp3066
(dp3067
g980
g27
sg19
S'^_\x0f\x94\xc0\xc3'
p3068
sg21
L48725L
sg30
I4
sg22
Nsg23
L12L
sg24
(lp3069
g27
ag14
ag113
asg18
L48720L
sbag5
(g976
g7
Ntp3070
Rp3071
(dp3072
g980
g113
sg19
g3068
sg21
L48725L
sg30
I0
sg22
Nsg23
L12L
sg24
g3069
sg18
L48720L
sbag5
(g976
g7
Ntp3073
Rp3074
(dp3075
g980
g27
sg19
S'^_\x0f\x95\xc0\xc3'
p3076
sg21
L16953L
sg30
I4
sg22
Nsg23
L12L
sg24
(lp3077
g27
ag14
ag113
asg18
L16948L
sbag5
(g976
g7
Ntp3078
Rp3079
(dp3080
g980
g113
sg19
g3076
sg21
L16953L
sg30
I0
sg22
Nsg23
L12L
sg24
g3077
sg18
L16948L
sbag5
(g976
g7
Ntp3081
Rp3082
(dp3083
g980
g113
sg19
S'^\xc3'
p3084
sg21
L16108L
sg30
I0
sg22
Nsg23
L8L
sg24
(lp3085
g113
asg18
L16107L
sbag5
(g976
g7
Ntp3086
Rp3087
(dp3088
g980
g27
sg19
S'^\x0f\x95\xc0_\xc3'
p3089
sg21
L16930L
sg30
I4
sg22
Nsg23
L12L
sg24
(lp3090
g27
ag14
ag113
asg18
L16925L
sbag5
(g976
g7
Ntp3091
Rp3092
(dp3093
g980
g113
sg19
g3089
sg21
L16930L
sg30
I0
sg22
Nsg23
L12L
sg24
g3090
sg18
L16925L
sbag5
(g976
g7
Ntp3094
Rp3095
(dp3096
g980
g27
sg19
S'a\xfc\xc3'
p3097
sg21
L13139L
sg30
I0
sg22
Nsg23
L36L
sg24
(lp3098
g27
ag14
ag29
ag41
ag17
ag113
ag39
asg18
L13137L
sbag5
(g976
g7
Ntp3099
Rp3100
(dp3101
g980
g14
sg19
g3097
sg21
L13139L
sg30
I28
sg22
Nsg23
L36L
sg24
g3098
sg18
L13137L
sbag5
(g976
g7
Ntp3102
Rp3103
(dp3104
g980
g29
sg19
g3097
sg21
L13139L
sg30
I8
sg22
Nsg23
L36L
sg24
g3098
sg18
L13137L
sbag5
(g976
g7
Ntp3105
Rp3106
(dp3107
g980
g41
sg19
g3097
sg21
L13139L
sg30
I20
sg22
Nsg23
L36L
sg24
g3098
sg18
L13137L
sbag5
(g976
g7
Ntp3108
Rp3109
(dp3110
g980
g17
sg19
g3097
sg21
L13139L
sg30
I16
sg22
Nsg23
L36L
sg24
g3098
sg18
L13137L
sbag5
(g976
g7
Ntp3111
Rp3112
(dp3113
g980
g113
sg19
g3097
sg21
L13139L
sg30
I4
sg22
Nsg23
L36L
sg24
g3098
sg18
L13137L
sbag5
(g976
g7
Ntp3114
Rp3115
(dp3116
g980
g39
sg19
g3097
sg21
L13139L
sg30
I24
sg22
Nsg23
L36L
sg24
g3098
sg18
L13137L
sbag5
(g976
g7
Ntp3117
Rp3118
(dp3119
g980
g27
sg19
S'a\n\x0e\x14A\xc3'
p3120
sg21
L133285L
sg30
I0
sg22
Nsg23
L36L
sg24
(lp3121
g27
ag14
ag29
ag41
ag17
ag113
ag39
asg18
L133280L
sbag5
(g976
g7
Ntp3122
Rp3123
(dp3124
g980
g29
sg19
g3120
sg21
L133285L
sg30
I8
sg22
Nsg23
L36L
sg24
g3121
sg18
L133280L
sbag5
(g976
g7
Ntp3125
Rp3126
(dp3127
g980
g41
sg19
g3120
sg21
L133285L
sg30
I20
sg22
Nsg23
L36L
sg24
g3121
sg18
L133280L
sbag5
(g976
g7
Ntp3128
Rp3129
(dp3130
g980
g17
sg19
g3120
sg21
L133285L
sg30
I16
sg22
Nsg23
L36L
sg24
g3121
sg18
L133280L
sbag5
(g976
g7
Ntp3131
Rp3132
(dp3133
g980
g113
sg19
g3120
sg21
L133285L
sg30
I4
sg22
Nsg23
L36L
sg24
g3121
sg18
L133280L
sbag5
(g976
g7
Ntp3134
Rp3135
(dp3136
g980
g17
sg19
S'\x0e\x83\xc4\x04[^\xc3'
p3137
sg21
L45137L
sg30
I0
sg22
Nsg23
L12L
sg24
(lp3138
g17
ag113
asg18
L45131L
sbag5
(g976
g7
Ntp3139
Rp3140
(dp3141
g980
g113
sg19
g3137
sg21
L45137L
sg30
I4
sg22
Nsg23
L12L
sg24
g3138
sg18
L45131L
sbag5
(g976
g7
Ntp3142
Rp3143
(dp3144
g980
g17
sg19
S'\x06\x00\x00\x83\xc4\x08[\xc3'
p3145
sg21
L7478L
sg30
I4
sg22
Nsg23
L12L
sg24
(lp3146
g17
asg18
L7471L
sbag5
(g976
g7
Ntp3147
Rp3148
(dp3149
g980
g17
sg19
S'\x06\x83\xc4\x14[^\xc3'
p3150
sg21
L47428L
sg30
I16
sg22
Nsg23
L28L
sg24
(lp3151
g17
ag113
asg18
L47422L
sbag5
(g976
g7
Ntp3152
Rp3153
(dp3154
g980
g113
sg19
g3150
sg21
L47428L
sg30
I20
sg22
Nsg23
L28L
sg24
g3151
sg18
L47422L
sbag5
(g976
g7
Ntp3155
Rp3156
(dp3157
g980
g17
sg19
S'\x06\x83\xc4\x04[^\xc3'
p3158
sg21
L76218L
sg30
I0
sg22
Nsg23
L12L
sg24
(lp3159
g17
ag113
asg18
L76212L
sbag5
(g976
g7
Ntp3160
Rp3161
(dp3162
g980
g113
sg19
g3158
sg21
L76218L
sg30
I4
sg22
Nsg23
L12L
sg24
g3159
sg18
L76212L
sbag5
(g976
g7
Ntp3163
Rp3164
(dp3165
g980
g17
sg19
S'\x16\x83\xc4\x04[^\x8d\x04\xc2\xc3'
p3166
sg21
L47739L
sg30
I0
sg22
Nsg23
L12L
sg24
(lp3167
g14
ag17
ag113
asg18
L47730L
sbag5
(g976
g7
Ntp3168
Rp3169
(dp3170
g980
g113
sg19
g3166
sg21
L47739L
sg30
I4
sg22
Nsg23
L12L
sg24
g3167
sg18
L47730L
sbag5
(g976
g7
Ntp3171
Rp3172
(dp3173
g980
g29
sg19
S'\x9c\x00\x00\x00[^_]\xc3'
p3174
sg21
L22346L
sg30
I0
sg22
Nsg23
L8L
sg24
(lp3175
g27
ag29
asg18
L22338L
sbag5
(g976
g7
Ntp3176
Rp3177
(dp3178
g980
g29
sg19
S'\xc0[^_]\xc3'
p3179
sg21
L47912L
sg30
I0
sg22
Nsg23
L8L
sg24
(lp3180
g29
asg18
L47907L
sbag5
(g976
g7
Ntp3181
Rp3182
(dp3183
g980
g27
sg19
S'\xc0[\xf7\xd8^_]\xc3'
p3184
sg21
L83591L
sg30
I4
sg22
Nsg23
L16L
sg24
(lp3185
g27
ag29
ag113
asg18
L83584L
sbag5
(g976
g7
Ntp3186
Rp3187
(dp3188
g980
g29
sg19
g3184
sg21
L83591L
sg30
I8
sg22
Nsg23
L16L
sg24
g3185
sg18
L83584L
sbag5
(g976
g7
Ntp3189
Rp3190
(dp3191
g980
g113
sg19
g3184
sg21
L83591L
sg30
I0
sg22
Nsg23
L16L
sg24
g3185
sg18
L83584L
sbag5
(g976
g7
Ntp3192
Rp3193
(dp3194
g980
g27
sg19
S'\xf3\xa6^\x0f\x95\xc0_\xc3'
p3195
sg21
L16930L
sg30
I4
sg22
Nsg23
L12L
sg24
(lp3196
g27
ag14
ag113
ag39
asg18
L16923L
sbag5
(g976
g7
Ntp3197
Rp3198
(dp3199
g980
g113
sg19
g3195
sg21
L16930L
sg30
I0
sg22
Nsg23
L12L
sg24
g3196
sg18
L16923L
sbag5
(g976
g7
Ntp3200
Rp3201
(dp3202
g980
g27
sg19
S'\xd2\x83\xc4\x1c[^_]\xc3'
p3203
sg21
L89327L
sg30
I0
sg22
Nsg23
L12L
sg24
(lp3204
g27
ag29
asg18
L89319L
sbag5
(g976
g7
Ntp3205
Rp3206
(dp3207
g980
g29
sg19
g3203
sg21
L89327L
sg30
I4
sg22
Nsg23
L12L
sg24
g3204
sg18
L89319L
sbag5
(g976
g7
Ntp3208
Rp3209
(dp3210
g980
g17
sg19
S'\xc0\x83\xe0\xe0\x83\xc0t\x88B\t[\xc3'
p3211
sg21
L45721L
sg30
I0
sg22
Nsg23
L8L
sg24
(lp3212
g17
asg18
L45710L
sbag5
(g976
g7
Ntp3213
Rp3214
(dp3215
g980
g17
sg19
S'\xc0\x83\xe0\xb5\x83\xc0x\x88B\t[\xc3'
p3216
sg21
L45770L
sg30
I0
sg22
Nsg23
L8L
sg24
(lp3217
g17
asg18
L45759L
sbag5
(g976
g7
Ntp3218
Rp3219
(dp3220
g980
g17
sg19
S'\xc0t\x88B\t[\xc3'
p3221
sg21
L45721L
sg30
I0
sg22
Nsg23
L8L
sg24
(lp3222
g17
asg18
L45715L
sbag5
(g976
g7
Ntp3223
Rp3224
(dp3225
g980
g17
sg19
S'\xd2u\x1b[^\xc3'
p3226
sg21
L46240L
sg30
I0
sg22
Nsg23
L12L
sg24
(lp3227
g17
ag113
asg18
L46235L
sbag5
(g976
g7
Ntp3228
Rp3229
(dp3230
g980
g113
sg19
g3226
sg21
L46240L
sg30
I4
sg22
Nsg23
L12L
sg24
g3227
sg18
L46235L
sbag5
(g976
g7
Ntp3231
Rp3232
(dp3233
g980
g27
sg19
S'\xc0uK[^_\xc3'
p3234
sg21
L44658L
sg30
I4
sg22
Nsg23
L12L
sg24
(lp3235
g27
ag113
asg18
L44652L
sbag5
(g976
g7
Ntp3236
Rp3237
(dp3238
g980
g113
sg19
g3234
sg21
L44658L
sg30
I0
sg22
Nsg23
L12L
sg24
g3235
sg18
L44652L
sbag5
(g976
g7
Ntp3239
Rp3240
(dp3241
g980
g17
sg19
S'\xc0u\x04\x85\xf6u\x1f\x83\xc4\x04[^\xc3'
p3242
sg21
L76346L
sg30
I4
sg22
Nsg23
L16L
sg24
(lp3243
g14
ag17
ag113
asg18
L76334L
sbag5
(g976
g7
Ntp3244
Rp3245
(dp3246
g980
g113
sg19
g3242
sg21
L76346L
sg30
I8
sg22
Nsg23
L16L
sg24
g3243
sg18
L76334L
sbag5
(g976
g7
Ntp3247
Rp3248
(dp3249
g980
g17
sg19
S'\xc0u\x04\x85\xf6u\x06\x83\xc4\x04[^\xc3'
p3250
sg21
L76218L
sg30
I4
sg22
Nsg23
L16L
sg24
(lp3251
g14
ag41
ag17
ag113
asg18
L76206L
sbag5
(g976
g7
Ntp3252
Rp3253
(dp3254
g980
g113
sg19
g3250
sg21
L76218L
sg30
I8
sg22
Nsg23
L16L
sg24
g3251
sg18
L76206L
sbag5
(g976
g7
Ntp3255
Rp3256
(dp3257
g980
g17
sg19
S'\xc0t\x05\xe8\xee\x06\x00\x00\x83\xc4\x08[\xc3'
p3258
sg21
L7478L
sg30
I4
sg22
Nsg23
L12L
sg24
(lp3259
g17
asg18
L7466L
sbag5
(g976
g7
Ntp3260
Rp3261
(dp3262
g980
g27
sg19
S'\xc0t\x15\x83\xc4\x0c[^_]\xc3'
p3263
sg21
L41132L
sg30
I4
sg22
Nsg23
L16L
sg24
(lp3264
g27
ag14
ag29
ag113
asg18
L41122L
sbag5
(g976
g7
Ntp3265
Rp3266
(dp3267
g980
g29
sg19
g3263
sg21
L41132L
sg30
I8
sg22
Nsg23
L16L
sg24
g3264
sg18
L41122L
sbag5
(g976
g7
Ntp3268
Rp3269
(dp3270
g980
g113
sg19
g3263
sg21
L41132L
sg30
I0
sg22
Nsg23
L16L
sg24
g3264
sg18
L41122L
sbag5
(g976
g7
Ntp3271
Rp3272
(dp3273
g980
g17
sg19
S'\xd2u\xec[\xc3'
p3274
sg21
L45087L
sg30
I0
sg22
Nsg23
L8L
sg24
(lp3275
g17
asg18
L45083L
sbag5
(g976
g7
Ntp3276
Rp3277
(dp3278
g980
g17
sg19
S'\xd2u\xe7\x89\xf0[^\xc3'
p3279
sg21
L49525L
sg30
I0
sg22
Nsg23
L12L
sg24
(lp3280
g14
ag17
ag113
asg18
L49518L
sbag5
(g976
g7
Ntp3281
Rp3282
(dp3283
g980
g113
sg19
g3279
sg21
L49525L
sg30
I4
sg22
Nsg23
L12L
sg24
g3280
sg18
L49518L
sbag5
(g976
g7
Ntp3284
Rp3285
(dp3286
g980
g27
sg19
S'\xc0t\x0f\x83\xc4\x0c[^_]\xc3'
p3287
sg21
L40440L
sg30
I4
sg22
Nsg23
L16L
sg24
(lp3288
g27
ag14
ag29
ag113
asg18
L40430L
sbag5
(g976
g7
Ntp3289
Rp3290
(dp3291
g980
g29
sg19
g3287
sg21
L40440L
sg30
I8
sg22
Nsg23
L16L
sg24
g3288
sg18
L40430L
sbag5
(g976
g7
Ntp3292
Rp3293
(dp3294
g980
g113
sg19
g3287
sg21
L40440L
sg30
I0
sg22
Nsg23
L16L
sg24
g3288
sg18
L40430L
sbag5
(g976
g7
Ntp3295
Rp3296
(dp3297
g980
g17
sg19
S'\xd1r\xf31\xc0\x83\xc4\x04[^\xc3'
p3298
sg21
L49252L
sg30
I4
sg22
Nsg23
L16L
sg24
(lp3299
g14
ag17
ag113
asg18
L49242L
sbag5
(g976
g7
Ntp3300
Rp3301
(dp3302
g980
g113
sg19
g3298
sg21
L49252L
sg30
I8
sg22
Nsg23
L16L
sg24
g3299
sg18
L49242L
sbag5
(g976
g7
Ntp3303
Rp3304
(dp3305
g980
g27
sg19
S'\xc09_\x0ct\x04[^_\xc3'
p3306
sg21
L48715L
sg30
I4
sg22
Nsg23
L12L
sg24
(lp3307
g27
ag14
ag113
asg18
L48706L
sbag5
(g976
g7
Ntp3308
Rp3309
(dp3310
g980
g113
sg19
g3306
sg21
L48715L
sg30
I0
sg22
Nsg23
L12L
sg24
g3307
sg18
L48706L
sbag5
(g976
g7
Ntp3311
Rp3312
(dp3313
g980
g113
sg19
S'\xd2\xfe\xff\x83\xc4\x10\x83\xc4\x04[^\xc3'
p3314
sg21
L84945L
sg30
I0
sg22
Nsg23
L8L
sg24
(lp3315
g14
ag113
asg18
L84934L
sbag5
(g976
g7
Ntp3316
Rp3317
(dp3318
g980
g17
sg19
S'\xc1\xfe\xff\x83\xc4\x18[\xc3'
p3319
sg21
L89758L
sg30
I24
sg22
Nsg23
L32L
sg24
(lp3320
g17
ag113
asg18
L89751L
sbag5
(g976
g7
Ntp3321
Rp3322
(dp3323
g980
g17
sg19
S'f\xc1\xfe\xff\x83\xc4\x18[\xc3'
p3324
sg21
L89758L
sg30
I24
sg22
Nsg23
L32L
sg24
(lp3325
g17
ag113
asg18
L89750L
sbag5
(g976
g7
Ntp3326
Rp3327
(dp3328
g980
g29
sg19
S'\x1c1\xc0[^_]\xc3'
p3329
sg21
L47912L
sg30
I0
sg22
Nsg23
L8L
sg24
(lp3330
g14
ag29
asg18
L47905L
sbag5
(g976
g7
Ntp3331
Rp3332
(dp3333
g980
g27
sg19
S'\x1c[\x89\xf8^_]\xc3'
p3334
sg21
L43574L
sg30
I4
sg22
Nsg23
L16L
sg24
(lp3335
g27
ag14
ag29
ag113
asg18
L43567L
sbag5
(g976
g7
Ntp3336
Rp3337
(dp3338
g980
g29
sg19
g3334
sg21
L43574L
sg30
I8
sg22
Nsg23
L16L
sg24
g3335
sg18
L43567L
sbag5
(g976
g7
Ntp3339
Rp3340
(dp3341
g980
g113
sg19
g3334
sg21
L43574L
sg30
I0
sg22
Nsg23
L16L
sg24
g3335
sg18
L43567L
sbag5
(g976
g7
Ntp3342
Rp3343
(dp3344
g980
g27
sg19
S'\x1c[^_]\xc3'
p3345
sg21
L17853L
sg30
I4
sg22
Nsg23
L16L
sg24
(lp3346
g27
ag14
ag29
ag113
asg18
L17848L
sbag5
(g976
g7
Ntp3347
Rp3348
(dp3349
g980
g29
sg19
g3345
sg21
L17853L
sg30
I8
sg22
Nsg23
L16L
sg24
g3346
sg18
L17848L
sbag5
(g976
g7
Ntp3350
Rp3351
(dp3352
g980
g113
sg19
g3345
sg21
L17853L
sg30
I0
sg22
Nsg23
L16L
sg24
g3346
sg18
L17848L
sbag5
(g976
g7
Ntp3353
Rp3354
(dp3355
g980
g27
sg19
S'\x1c\x89\xd8[^_]\xc3'
p3356
sg21
L49470L
sg30
I0
sg22
Nsg23
L12L
sg24
(lp3357
g27
ag14
ag29
asg18
L49463L
sbag5
(g976
g7
Ntp3358
Rp3359
(dp3360
g980
g29
sg19
g3356
sg21
L49470L
sg30
I4
sg22
Nsg23
L12L
sg24
g3357
sg18
L49463L
sbag5
(g976
g7
Ntp3361
Rp3362
(dp3363
g980
g17
sg19
S'\x1c\xe8f\xc1\xfe\xff\x83\xc4\x18[\xc3'
p3364
sg21
L89758L
sg30
I24
sg22
Nsg23
L32L
sg24
(lp3365
g14
ag17
ag113
asg18
L89748L
sbag5
(g976
g7
Ntp3366
Rp3367
(dp3368
g980
g17
sg19
S'\x1c\xff0\xe8\x80k\x00\x00\x83\xc4\x18[\xc3'
p3369
sg21
L18884L
sg30
I24
sg22
Nsg23
L32L
sg24
(lp3370
g14
ag17
asg18
L18872L
sbag5
(g976
g7
Ntp3371
Rp3372
(dp3373
g980
g27
sg19
S'\x18[^_]\xc3'
p3374
sg21
L16360L
sg30
I0
sg22
Nsg23
L12L
sg24
(lp3375
g27
ag29
asg18
L16355L
sbag5
(g976
g7
Ntp3376
Rp3377
(dp3378
g980
g29
sg19
g3374
sg21
L16360L
sg30
I4
sg22
Nsg23
L12L
sg24
g3375
sg18
L16355L
sbag5
(g976
g7
Ntp3379
Rp3380
(dp3381
g980
g27
sg19
g748
sg21
L30309L
sg30
I8
sg22
Nsg23
L16L
sg24
g749
sg18
L30298L
sbag5
(g976
g7
Ntp3382
Rp3383
(dp3384
g980
g17
sg19
g748
sg21
L30309L
sg30
I0
sg22
Nsg23
L16L
sg24
g749
sg18
L30298L
sbag5
(g976
g7
Ntp3385
Rp3386
(dp3387
g980
g113
sg19
g748
sg21
L30309L
sg30
I4
sg22
Nsg23
L16L
sg24
g749
sg18
L30298L
sbag5
(g976
g7
Ntp3388
Rp3389
(dp3390
g980
g17
sg19
S'\x19\xc0\x83\xe0\xb5\x83\xc0x\x88B\t[\xc3'
p3391
sg21
L45770L
sg30
I0
sg22
Nsg23
L8L
sg24
(lp3392
g14
ag17
asg18
L45758L
sbag5
(g976
g7
Ntp3393
Rp3394
(dp3395
g980
g17
sg19
S'\x19\xc0\x83\xe0\xe0\x83\xc0t\x88B\t[\xc3'
p3396
sg21
L45721L
sg30
I0
sg22
Nsg23
L8L
sg24
(lp3397
g14
ag17
asg18
L45709L
sbag5
(g976
g7
Ntp3398
Rp3399
(dp3400
g980
g17
sg19
S'\x0f\x95\xc0\x83\xc4\x14[^\xc3'
p3401
sg21
L21031L
sg30
I20
sg22
Nsg23
L32L
sg24
(lp3402
g14
ag17
ag113
asg18
L21023L
sbag5
(g976
g7
Ntp3403
Rp3404
(dp3405
g980
g113
sg19
g3401
sg21
L21031L
sg30
I24
sg22
Nsg23
L32L
sg24
g3402
sg18
L21023L
sbag5
(g976
g7
Ntp3406
Rp3407
(dp3408
g980
g27
sg19
S'\x0f\x95\xc0_\xc3'
p3409
sg21
L16930L
sg30
I0
sg22
Nsg23
L8L
sg24
(lp3410
g27
ag14
asg18
L16926L
sbag5
(g976
g7
Ntp3411
Rp3412
(dp3413
g980
g17
sg19
S'\xd3\xe21\xf2\x89\x13[^\xc3'
p3414
sg21
L64969L
sg30
I0
sg22
Nsg23
L12L
sg24
(lp3415
g41
ag17
ag113
asg18
L64961L
sbag5
(g976
g7
Ntp3416
Rp3417
(dp3418
g980
g113
sg19
g3414
sg21
L64969L
sg30
I4
sg22
Nsg23
L12L
sg24
g3415
sg18
L64961L
sbag5
(g976
g7
Ntp3419
Rp3420
(dp3421
g980
g27
sg19
S',[^_]\xc3'
p3422
sg21
L35974L
sg30
I4
sg22
Nsg23
L16L
sg24
(lp3423
g27
ag14
ag29
ag113
asg18
L35969L
sbag5
(g976
g7
Ntp3424
Rp3425
(dp3426
g980
g29
sg19
g3422
sg21
L35974L
sg30
I8
sg22
Nsg23
L16L
sg24
g3423
sg18
L35969L
sbag5
(g976
g7
Ntp3427
Rp3428
(dp3429
g980
g113
sg19
g3422
sg21
L35974L
sg30
I0
sg22
Nsg23
L16L
sg24
g3423
sg18
L35969L
sbag5
(g976
g7
Ntp3430
Rp3431
(dp3432
g980
g27
sg19
S'(\x83\xc4\x1c[^_]\xc3'
p3433
sg21
L59741L
sg30
I0
sg22
Nsg23
L12L
sg24
(lp3434
g27
ag29
asg18
L59733L
sbag5
(g976
g7
Ntp3435
Rp3436
(dp3437
g980
g29
sg19
g3433
sg21
L59741L
sg30
I4
sg22
Nsg23
L12L
sg24
g3434
sg18
L59733L
sbag5
(g976
g7
Ntp3438
Rp3439
(dp3440
g980
g17
sg19
S'\x80k\x00\x00\x83\xc4\x18[\xc3'
p3441
sg21
L18884L
sg30
I24
sg22
Nsg23
L32L
sg24
(lp3442
g17
asg18
L18876L
sbag5
(g976
g7
Ntp3443
Rp3444
(dp3445
g980
g113
sg19
S'(\x89H,\x83\xc4\x04[^\xc3'
p3446
sg21
L65088L
sg30
I0
sg22
Nsg23
L8L
sg24
(lp3447
g14
ag113
asg18
L65079L
sbag5
(g976
g7
Ntp3448
Rp3449
(dp3450
g980
g29
sg19
S'*\x89\xd8[^_]\xc3'
p3451
sg21
L20899L
sg30
I0
sg22
Nsg23
L8L
sg24
(lp3452
g29
ag39
asg18
L20892L
sbag5
(g976
g7
Ntp3453
Rp3454
(dp3455
g980
g27
sg19
S'\xa8\xff\xff\x83\xc4\x10[^_\xc3'
p3456
sg21
L30110L
sg30
I0
sg22
Nsg23
L8L
sg24
(lp3457
g27
asg18
L30101L
sbag5
(g976
g7
Ntp3458
Rp3459
(dp3460
g980
g113
sg19
S'\x84\xff\xff\x83\xc4\x10\x83\xc4\x04[^\xc3'
p3461
sg21
L39176L
sg30
I0
sg22
Nsg23
L8L
sg24
(lp3462
g14
ag113
asg18
L39165L
sbag5
(g976
g7
Ntp3463
Rp3464
(dp3465
g980
g17
sg19
S'\x84\xd2\x0f\x95\xc0\x83\xc4\x14[^\xc3'
p3466
sg21
L21031L
sg30
I20
sg22
Nsg23
L32L
sg24
(lp3467
g14
ag17
ag113
asg18
L21021L
sbag5
(g976
g7
Ntp3468
Rp3469
(dp3470
g980
g113
sg19
g3466
sg21
L21031L
sg30
I24
sg22
Nsg23
L32L
sg24
g3467
sg18
L21021L
sbag5
(g976
g7
Ntp3471
Rp3472
(dp3473
g980
g27
sg19
S'\x85\xf2\x00\x00\x00\x81\xc4\xa0\x02\x00\x00[^_\xc3'
p3474
sg21
L28335L
sg30
I0
sg22
Nsg23
L8L
sg24
(lp3475
g27
asg18
L28321L
sbag5
(g976
g7
Ntp3476
Rp3477
(dp3478
g980
g27
sg19
S'\x96c\xff\xff\x83\xc4<[^_]\xc3'
p3479
sg21
L48977L
sg30
I0
sg22
Nsg23
L12L
sg24
(lp3480
g27
ag14
ag29
ag113
asg18
L48966L
sbag5
(g976
g7
Ntp3481
Rp3482
(dp3483
g980
g29
sg19
g3479
sg21
L48977L
sg30
I4
sg22
Nsg23
L12L
sg24
g3480
sg18
L48966L
sbag5
(g976
g7
Ntp3484
Rp3485
(dp3486
g980
g27
sg19
S'\xd7\x89\xf8[^_\xc3'
p3487
sg21
L44887L
sg30
I8
sg22
Nsg23
L16L
sg24
(lp3488
g27
ag14
ag17
ag113
asg18
L44881L
sbag5
(g976
g7
Ntp3489
Rp3490
(dp3491
g980
g17
sg19
g3487
sg21
L44887L
sg30
I0
sg22
Nsg23
L16L
sg24
g3488
sg18
L44881L
sbag5
(g976
g7
Ntp3492
Rp3493
(dp3494
g980
g113
sg19
g3487
sg21
L44887L
sg30
I4
sg22
Nsg23
L16L
sg24
g3488
sg18
L44881L
sbag5
(g976
g7
Ntp3495
Rp3496
(dp3497
g980
g17
sg19
S'0\xe8\xb0k\x00\x00\x83\xc4\x18[\xc3'
p3498
sg21
L18836L
sg30
I24
sg22
Nsg23
L32L
sg24
(lp3499
g14
ag17
asg18
L18826L
sbag5
(g976
g7
Ntp3500
Rp3501
(dp3502
g980
g17
sg19
S'0\xe8\x80k\x00\x00\x83\xc4\x18[\xc3'
p3503
sg21
L18884L
sg30
I24
sg22
Nsg23
L32L
sg24
(lp3504
g14
ag17
asg18
L18874L
sbag5
(g976
g7
Ntp3505
Rp3506
(dp3507
g980
g27
sg19
S'0\x83\xc4\x0c[^_]\xc3'
p3508
sg21
L83527L
sg30
I0
sg22
Nsg23
L12L
sg24
(lp3509
g27
ag29
asg18
L83519L
sbag5
(g976
g7
Ntp3510
Rp3511
(dp3512
g980
g29
sg19
g3508
sg21
L83527L
sg30
I4
sg22
Nsg23
L12L
sg24
g3509
sg18
L83519L
sbag5
(g976
g7
Ntp3513
Rp3514
(dp3515
g980
g27
sg19
S'0\x83\xc4,[^_]\xc3'
p3516
sg21
L75036L
sg30
I0
sg22
Nsg23
L12L
sg24
(lp3517
g27
ag29
asg18
L75028L
sbag5
(g976
g7
Ntp3518
Rp3519
(dp3520
g980
g29
sg19
g3516
sg21
L75036L
sg30
I4
sg22
Nsg23
L12L
sg24
g3517
sg18
L75028L
sbag5
(g976
g7
Ntp3521
Rp3522
(dp3523
g980
g27
sg19
S'0[^_\x0f\x95\xc0\xc3'
p3524
sg21
L16953L
sg30
I0
sg22
Nsg23
L8L
sg24
(lp3525
g27
ag14
asg18
L16946L
sbag5
(g976
g7
Ntp3526
Rp3527
(dp3528
g980
g27
sg19
S'>0[^_\x0f\x95\xc0\xc3'
p3529
sg21
L16953L
sg30
I0
sg22
Nsg23
L8L
sg24
(lp3530
g27
ag14
asg18
L16945L
sbag5
(g976
g7
Ntp3531
Rp3532
(dp3533
g980
g17
sg19
S'2\xe8\x00\x84\xff\xff\x83\xc4\x10\x83\xc4\x04[^\xc3'
p3534
sg21
L39336L
sg30
I4
sg22
Nsg23
L16L
sg24
(lp3535
g17
ag113
ag39
asg18
L39322L
sbag5
(g976
g7
Ntp3536
Rp3537
(dp3538
g980
g113
sg19
g3534
sg21
L39336L
sg30
I8
sg22
Nsg23
L16L
sg24
g3535
sg18
L39322L
sbag5
(g976
g7
Ntp3539
Rp3540
(dp3541
g980
g27
sg19
g968
sg21
L59873L
sg30
I8
sg22
Nsg23
L16L
sg24
g969
sg18
L59862L
sbag5
(g976
g7
Ntp3542
Rp3543
(dp3544
g980
g17
sg19
g968
sg21
L59873L
sg30
I0
sg22
Nsg23
L16L
sg24
g969
sg18
L59862L
sbag5
(g976
g7
Ntp3545
Rp3546
(dp3547
g980
g113
sg19
g968
sg21
L59873L
sg30
I4
sg22
Nsg23
L16L
sg24
g969
sg18
L59862L
sbag5
(g976
g7
Ntp3548
Rp3549
(dp3550
g980
g17
sg19
S'3C\x0c[^\t\xc2\x0f\x94\xc0\xc3'
p3551
sg21
L16131L
sg30
I0
sg22
Nsg23
L12L
sg24
(lp3552
g14
ag41
ag17
ag113
asg18
L16121L
sbag5
(g976
g7
Ntp3553
Rp3554
(dp3555
g980
g113
sg19
g3551
sg21
L16131L
sg30
I4
sg22
Nsg23
L12L
sg24
g3552
sg18
L16121L
sbag5
(g976
g7
Ntp3556
Rp3557
(dp3558
g980
g17
sg19
S'1\xc0\x83\xc4\x04[^\xc3'
p3559
sg21
L45286L
sg30
I4
sg22
Nsg23
L16L
sg24
(lp3560
g14
ag17
ag113
asg18
L45279L
sbag5
(g976
g7
Ntp3561
Rp3562
(dp3563
g980
g113
sg19
g3559
sg21
L45286L
sg30
I8
sg22
Nsg23
L16L
sg24
g3560
sg18
L45279L
sbag5
(g976
g7
Ntp3564
Rp3565
(dp3566
g980
g27
sg19
S'1\xc0[^_]\xc3'
p3567
sg21
L47912L
sg30
I8
sg22
Nsg23
L20L
sg24
(lp3568
g27
ag14
ag29
ag17
ag113
asg18
L47906L
sbag5
(g976
g7
Ntp3569
Rp3570
(dp3571
g980
g29
sg19
g3567
sg21
L47912L
sg30
I12
sg22
Nsg23
L20L
sg24
g3568
sg18
L47906L
sbag5
(g976
g7
Ntp3572
Rp3573
(dp3574
g980
g17
sg19
g3567
sg21
L47912L
sg30
I0
sg22
Nsg23
L20L
sg24
g3568
sg18
L47906L
sbag5
(g976
g7
Ntp3575
Rp3576
(dp3577
g980
g113
sg19
g3567
sg21
L47912L
sg30
I4
sg22
Nsg23
L20L
sg24
g3568
sg18
L47906L
sbag5
(g976
g7
Ntp3578
Rp3579
(dp3580
g980
g27
sg19
S'1\xc0[^_\xc3'
p3581
sg21
L16941L
sg30
I8
sg22
Nsg23
L16L
sg24
(lp3582
g27
ag14
ag17
ag113
asg18
L16936L
sbag5
(g976
g7
Ntp3583
Rp3584
(dp3585
g980
g17
sg19
g3581
sg21
L16941L
sg30
I0
sg22
Nsg23
L16L
sg24
g3582
sg18
L16936L
sbag5
(g976
g7
Ntp3586
Rp3587
(dp3588
g980
g113
sg19
g3581
sg21
L16941L
sg30
I4
sg22
Nsg23
L16L
sg24
g3582
sg18
L16936L
sbag5
(g976
g7
Ntp3589
Rp3590
(dp3591
g980
g17
sg19
S'1\xc0[^\xc3'
p3592
sg21
L16108L
sg30
I0
sg22
Nsg23
L12L
sg24
(lp3593
g14
ag17
ag113
asg18
L16104L
sbag5
(g976
g7
Ntp3594
Rp3595
(dp3596
g980
g113
sg19
g3592
sg21
L16108L
sg30
I4
sg22
Nsg23
L12L
sg24
g3593
sg18
L16104L
sbag5
(g976
g7
Ntp3597
Rp3598
(dp3599
g980
g17
sg19
S'1\xc0[\xc3'
p3600
sg21
L49152L
sg30
I0
sg22
Nsg23
L8L
sg24
(lp3601
g14
ag17
asg18
L49149L
sbag5
(g976
g7
Ntp3602
Rp3603
(dp3604
g980
g27
sg19
S'1\xc0^_\xc3'
p3605
sg21
L47491L
sg30
I4
sg22
Nsg23
L12L
sg24
(lp3606
g27
ag14
ag113
asg18
L47487L
sbag5
(g976
g7
Ntp3607
Rp3608
(dp3609
g980
g113
sg19
g3605
sg21
L47491L
sg30
I0
sg22
Nsg23
L12L
sg24
g3606
sg18
L47487L
sbag5
(g976
g7
Ntp3610
Rp3611
(dp3612
g980
g17
sg19
g756
sg21
L89815L
sg30
I8
sg22
Nsg23
L16L
sg24
g757
sg18
L89807L
sbag5
(g976
g7
Ntp3613
Rp3614
(dp3615
g980
g17
sg19
g761
sg21
L64969L
sg30
I0
sg22
Nsg23
L12L
sg24
g762
sg18
L64963L
sbag5
(g976
g7
Ntp3616
Rp3617
(dp3618
g980
g113
sg19
g761
sg21
L64969L
sg30
I4
sg22
Nsg23
L12L
sg24
g762
sg18
L64963L
sbas.