(dp0
cropd.Gadget
Types
p1
(I7
tp2
Rp3
(lp4
ccopy_reg
_reconstructor
p5
(cropd.Gadget
WriteMemOp_Gadget
p6
c__builtin__
object
p7
Ntp8
Rp9
(dp10
S'src'
p11
cropd.Gadget
Registers
p12
(I3
tp13
Rp14
sS'addr_reg'
p15
g12
(I4
tp16
Rp17
sS'address'
p18
L123857L
sS'hex'
p19
S'\x02\x03H\x01\n\xc3'
p20
sS'address_end'
p21
L123862L
sS'retn'
p22
NsS'stack_fix'
p23
L4L
sS'modified_regs'
p24
(lp25
g12
(I1
tp26
Rp27
asS'offset'
p28
L0L
sS'op'
p29
cropd.Gadget
Operations
p30
(I1
tp31
Rp32
sbag5
(g6
g7
Ntp33
Rp34
(dp35
g11
g27
sg15
g27
sg18
L59181L
sg19
S'\x01\x00\x00\x8b\x04$\x8b,\xb0\x83\xc3'
p36
sg21
L59191L
sg22
Nsg23
L4L
sg24
(lp37
g27
asg28
L0L
sg29
g32
sbag5
(g6
g7
Ntp38
Rp39
(dp40
g11
g27
sg15
g27
sg18
L74392L
sg19
S'\x01\x00\x009\xc3'
p41
sg21
L74396L
sg22
Nsg23
L4L
sg24
(lp42
sg28
L0L
sg29
g32
sbag5
(g6
g7
Ntp43
Rp44
(dp45
g11
g27
sg15
g27
sg18
L16067L
sg19
S'\x01\x00\x83\xc4\x18[\xc3'
p46
sg21
L16073L
sg22
Nsg23
L32L
sg24
(lp47
g12
(I2
tp48
Rp49
asg28
L0L
sg29
g32
sbag5
(g6
g7
Ntp50
Rp51
(dp52
g11
g27
sg15
g27
sg18
L122446L
sg19
S'\x01\x00A\xc3'
p53
sg21
L122449L
sg22
Nsg23
L4L
sg24
(lp54
g14
asg28
L0L
sg29
g32
sbag5
(g6
g7
Ntp55
Rp56
(dp57
g11
g27
sg15
g27
sg18
L44556L
sg19
S'\x01\x00\x88\x90D\x12\x00\x00\xc3'
p58
sg21
L44564L
sg22
Nsg23
L4L
sg24
(lp59
sg28
L0L
sg29
g32
sbag5
(g6
g7
Ntp60
Rp61
(dp62
g11
g27
sg15
g27
sg18
L44524L
sg19
S'\x01\x00\x89\x90H\x12\x00\x00\xc3'
p63
sg21
L44532L
sg22
Nsg23
L4L
sg24
(lp64
sg28
L0L
sg29
g32
sbag5
(g6
g7
Ntp65
Rp66
(dp67
g11
g27
sg15
g12
(I7
tp68
Rp69
sg18
L48665L
sg19
S'\x01\x85\xc0t\x1c\x8bA\x04\x83\xc3'
p70
sg21
L48674L
sg22
Nsg23
L4L
sg24
(lp71
g27
ag14
asg28
L2333897920L
sg29
g32
sbag5
(g6
g7
Ntp72
Rp73
(dp74
g11
g14
sg15
g14
sg18
L20012L
sg19
S'\x01\x89\x90\xdc\x10\x00\x00\xf3\xc3'
p75
sg21
L20020L
sg22
Nsg23
L4L
sg24
(lp76
g49
asg28
L1105040L
sg29
g32
sbag5
(g6
g7
Ntp77
Rp78
(dp79
g11
g14
sg15
g14
sg18
L46225L
sg19
S'\x01\x89\xc8\x89\x1e\x0f\xb6Q\x01\x84\xd2u\x1b[^\xc3'
p80
sg21
L46240L
sg22
Nsg23
L4L
sg24
(lp81
g17
asg28
L253659592L
sg29
g32
sbag5
(g6
g7
Ntp82
Rp83
(dp84
g11
g49
sg15
g14
sg18
L45708L
sg19
S'\x01\x19\xc0\x83\xe0\xe0\x83\xc0t\x88B\t[\xc3'
p85
sg21
L45721L
sg22
Nsg23
L8L
sg24
(lp86
g49
asg28
L0L
sg29
g32
sbag5
(g6
g7
Ntp87
Rp88
(dp89
g11
g49
sg15
g14
sg18
L45757L
sg19
S'\x01\x19\xc0\x83\xe0\xb5\x83\xc0x\x88B\t[\xc3'
p90
sg21
L45770L
sg22
Nsg23
L8L
sg24
(lp91
g49
asg28
L0L
sg29
g32
sbag5
(g6
g7
Ntp92
Rp93
(dp94
g11
g14
sg15
g17
sg18
L123856L
sg19
S'\x83\x02\x03H\x01\n\xc3'
p95
sg21
L123862L
sg22
Nsg23
L4L
sg24
(lp96
g27
asg28
L0L
sg29
g32
sbag5
(g6
g7
Ntp97
Rp98
(dp99
g11
g14
sg15
g17
sg18
L123860L
sg19
S'\x01\n\xc3'
p100
sg21
L123862L
sg22
Nsg23
L4L
sg24
(lp101
sg28
L0L
sg29
g32
sbag5
(g6
g7
Ntp102
Rp103
(dp104
g11
g14
sg15
g12
(I5
tp105
Rp106
sg18
L135502L
sg19
S'\x01\x0e\x14A\xc3'
p107
sg21
L135506L
sg22
Nsg23
L4L
sg24
(lp108
g27
asg28
L0L
sg29
g32
sbag5
(g6
g7
Ntp109
Rp110
(dp111
g11
g49
sg15
g14
sg18
L45707L
sg19
S'\xf8\x01\x19\xc0\x83\xe0\xe0\x83\xc0t\x88B\t[\xc3'
p112
sg21
L45721L
sg22
Nsg23
L8L
sg24
(lp113
g49
asg28
L0L
sg29
g32
sbag5
(g6
g7
Ntp114
Rp115
(dp116
g11
g49
sg15
g14
sg18
L45756L
sg19
S'\xf8\x01\x19\xc0\x83\xe0\xb5\x83\xc0x\x88B\t[\xc3'
p117
sg21
L45770L
sg22
Nsg23
L8L
sg24
(lp118
g49
asg28
L0L
sg29
g32
sbag5
(g6
g7
Ntp119
Rp120
(dp121
g11
g14
sg15
g17
sg18
L123859L
sg19
S'H\x01\n\xc3'
p122
sg21
L123862L
sg22
Nsg23
L4L
sg24
(lp123
g27
asg28
L0L
sg29
g32
sbag5
(g6
g7
Ntp124
Rp125
(dp126
g11
g27
sg15
g27
sg18
L59176L
sg19
S'k\xfc\x0f\x84 \x01\x00\x00\x8b\x04$\x8b,\xb0\x83\xc3'
p127
sg21
L59191L
sg22
Nsg23
L4L
sg24
(lp128
g12
(I6
tp129
Rp130
ag27
asg28
L0L
sg29
g32
sbag5
(g6
g7
Ntp131
Rp132
(dp133
g11
g27
sg15
g27
sg18
L74391L
sg19
S'\x90\x01\x00\x009\xc3'
p134
sg21
L74396L
sg22
Nsg23
L4L
sg24
(lp135
sg28
L0L
sg29
g32
sbag5
(g6
g7
Ntp136
Rp137
(dp138
g11
g49
sg15
g49
sg18
L20350L
sg19
S'\t[^\xc3'
p139
sg21
L20353L
sg22
Nsg23
L4L
sg24
(lp140
sg28
L94L
sg29
g30
(I6
tp141
Rp142
sbag5
(g6
g7
Ntp143
Rp144
(dp145
g11
g27
sg15
g49
sg18
L130244L
sg19
S'\t\x035\x02\n\x0e\x14A\xc3'
p146
sg21
L130252L
sg22
Nsg23
L4L
sg24
(lp147
g27
ag14
asg28
L0L
sg29
g142
sbag5
(g6
g7
Ntp148
Rp149
(dp150
g11
g130
sg15
g106
sg18
L30298L
sg19
S'\x19~\x13[\xb8\x01\x00\x00\x00^_\xc3'
p151
sg21
L30309L
sg22
Nsg23
L16L
sg24
(lp152
g130
ag27
ag49
ag106
asg28
L19L
sg29
g30
(I2
tp153
Rp154
sbag5
(g6
g7
Ntp155
Rp156
(dp157
g11
g27
sg15
g27
sg18
L59179L
sg19
S'\x84 \x01\x00\x00\x8b\x04$\x8b,\xb0\x83\xc3'
p158
sg21
L59191L
sg22
Nsg23
L4L
sg24
(lp159
g27
asg28
L0L
sg29
g32
sbag5
(g6
g7
Ntp160
Rp161
(dp162
g11
g27
sg15
g49
sg18
L30808L
sg19
S'1\x83\xc4\x14[^\xc3'
p163
sg21
L30814L
sg22
Nsg23
L4L
sg24
(lp164
sg28
L1583027396L
sg29
g30
(I5
tp165
Rp166
sbasg1
(I6
tp167
Rp168
(lp169
g5
(cropd.Gadget
ReadMemOp_Gadget
p170
g7
Ntp171
Rp172
(dp173
S'dest'
p174
g49
sg15
g49
sg18
L64966L
sg19
S'\x13[^\xc3'
p175
sg21
L64969L
sg22
Nsg23
L4L
sg24
(lp176
g49
asg28
L94L
sg29
g32
sbag5
(g170
g7
Ntp177
Rp178
(dp179
g174
g17
sg15
g27
sg18
L122667L
sg19
S'\x04C\x0bP\x0e\x14A\xc3'
p180
sg21
L122674L
sg22
Nsg23
L4L
sg24
(lp181
g27
ag17
asg28
L81L
sg29
g142
sbag5
(g170
g7
Ntp182
Rp183
(dp184
g174
g14
sg15
g106
sg18
L124328L
sg19
S'\x04E\x0bN\n\xc3'
p185
sg21
L124333L
sg22
Nsg23
L4L
sg24
(lp186
g27
ag14
asg28
L10L
sg29
g142
sbag5
(g170
g7
Ntp187
Rp188
(dp189
g174
g17
sg15
g14
sg18
L117576L
sg19
S'\x04E\x0bQ\n\xc3'
p190
sg21
L117581L
sg22
Nsg23
L4L
sg24
(lp191
g27
ag17
asg28
L10L
sg29
g142
sbag5
(g170
g7
Ntp192
Rp193
(dp194
g174
g17
sg15
g130
sg18
L114604L
sg19
S'\x04F\x0bW\x0e\x14A\xc3'
p195
sg21
L114611L
sg22
Nsg23
L4L
sg24
(lp196
g27
ag17
asg28
L14L
sg29
g142
sbag5
(g170
g7
Ntp197
Rp198
(dp199
g174
g69
sg15
g17
sg18
L123864L
sg19
S'\x04G\x0bj\n\xc3'
p200
sg21
L123869L
sg22
Nsg23
L4L
sg24
(lp201
g27
ag69
asg28
L10L
sg29
g142
sbag5
(g170
g7
Ntp202
Rp203
(dp204
g174
g14
sg15
g106
sg18
L120083L
sg19
S'\x04G\x0bN\n\xc3'
p205
sg21
L120088L
sg22
Nsg23
L4L
sg24
(lp206
g27
ag14
asg28
L10L
sg29
g142
sbag5
(g170
g7
Ntp207
Rp208
(dp209
g174
g14
sg15
g27
sg18
L120488L
sg19
S'\x04H\x0bH\x0e\x14A\xc3'
p210
sg21
L120495L
sg22
Nsg23
L4L
sg24
(lp211
g27
ag14
asg28
L86L
sg29
g142
sbag5
(g170
g7
Ntp212
Rp213
(dp214
g174
g14
sg15
g69
sg18
L133896L
sg19
S'\x04I\x0bM\x0e\x14A\xc3'
p215
sg21
L133903L
sg22
Nsg23
L4L
sg24
(lp216
g27
ag14
asg28
L14L
sg29
g142
sbag5
(g170
g7
Ntp217
Rp218
(dp219
g174
g14
sg15
g130
sg18
L120094L
sg19
S'\x04I\x0bO\n\xc3'
p220
sg21
L120099L
sg22
Nsg23
L4L
sg24
(lp221
g27
ag14
asg28
L10L
sg29
g142
sbag5
(g170
g7
Ntp222
Rp223
(dp224
g174
g49
sg15
g14
sg18
L112993L
sg19
S'\x02A\x0e\x0c\x83\x03Y\n\xc3'
p225
sg21
L113001L
sg22
Nsg23
L4L
sg24
(lp226
g27
ag49
asg28
L10L
sg29
g32
sbag5
(g170
g7
Ntp227
Rp228
(dp229
g174
g130
sg15
g106
sg18
L114725L
sg19
S'\x02A\x0e\x0c\x83\x03~\n\xc3'
p230
sg21
L114733L
sg22
Nsg23
L4L
sg24
(lp231
g130
ag27
asg28
L10L
sg29
g32
sbag5
(g170
g7
Ntp232
Rp233
(dp234
g174
g27
sg15
g27
sg18
L37379L
sg19
S'\x03\x00\x00[^_]\xc3'
p235
sg21
L37386L
sg22
Nsg23
L12L
sg24
(lp236
g130
ag27
ag69
asg28
L0L
sg29
g32
sbag5
(g170
g7
Ntp237
Rp238
(dp239
g174
g27
sg15
g49
sg18
L124910L
sg19
S'\x03C\x0e\x10\x83\x04\x02D\n\xc3'
p240
sg21
L124919L
sg22
Nsg23
L4L
sg24
(lp241
g27
asg28
L14L
sg29
g32
sbag5
(g170
g7
Ntp242
Rp243
(dp244
g174
g27
sg15
g49
sg18
L128374L
sg19
S'\x03C\x0e\x10\x83\x04\x02W\n\xc3'
p245
sg21
L128383L
sg22
Nsg23
L4L
sg24
(lp246
g27
asg28
L14L
sg29
g32
sbag5
(g170
g7
Ntp247
Rp248
(dp249
g174
g27
sg15
g14
sg18
L114654L
sg19
S'\x03A\x0e\x10\x83\x04\x02I\n\xc3'
p250
sg21
L114663L
sg22
Nsg23
L4L
sg24
(lp251
g27
asg28
L14L
sg29
g32
sbag5
(g170
g7
Ntp252
Rp253
(dp254
g174
g27
sg15
g17
sg18
L124874L
sg19
S'\x03\x02E\xc3'
p255
sg21
L124877L
sg22
Nsg23
L4L
sg24
(lp256
g27
ag69
asg28
L0L
sg29
g32
sbag5
(g170
g7
Ntp257
Rp258
(dp259
g174
g27
sg15
g17
sg18
L129002L
sg19
S'\x03\x02F\xc3'
p260
sg21
L129005L
sg22
Nsg23
L4L
sg24
(lp261
g27
ag106
asg28
L0L
sg29
g32
sbag5
(g170
g7
Ntp262
Rp263
(dp264
g174
g49
sg15
g49
sg18
L49073L
sg19
S'\x03[^_\xc3'
p265
sg21
L49077L
sg22
Nsg23
L8L
sg24
(lp266
g130
ag49
asg28
L94L
sg29
g32
sbag5
(g170
g7
Ntp267
Rp268
(dp269
g174
g49
sg15
g14
sg18
L112998L
sg19
S'\x03Y\n\xc3'
p270
sg21
L113001L
sg22
Nsg23
L4L
sg24
(lp271
g49
asg28
L10L
sg29
g32
sbag5
(g170
g7
Ntp272
Rp273
(dp274
g174
g14
sg15
g17
sg18
L118478L
sg19
S'\x03\n\xc3'
p275
sg21
L118480L
sg22
Nsg23
L4L
sg24
(lp276
g14
asg28
L0L
sg29
g32
sbag5
(g170
g7
Ntp277
Rp278
(dp279
g174
g130
sg15
g106
sg18
L114730L
sg19
S'\x03~\n\xc3'
p280
sg21
L114733L
sg22
Nsg23
L4L
sg24
(lp281
g130
asg28
L10L
sg29
g32
sbag5
(g170
g7
Ntp282
Rp283
(dp284
g174
g14
sg15
g27
sg18
L120489L
sg19
S'H\x0bH\x0e\x14A\xc3'
p285
sg21
L120495L
sg22
Nsg23
L4L
sg24
(lp286
g27
ag14
asg28
L13L
sg29
g142
sbag5
(g170
g7
Ntp287
Rp288
(dp289
g174
g27
sg15
g69
sg18
L117997L
sg19
S'K\x0bE\n\xc3'
p290
sg21
L118001L
sg22
Nsg23
L4L
sg24
(lp291
g27
ag49
asg28
L10L
sg29
g142
sbag5
(g170
g7
Ntp292
Rp293
(dp294
g174
g14
sg15
g106
sg18
L124329L
sg19
S'E\x0bN\n\xc3'
p295
sg21
L124333L
sg22
Nsg23
L4L
sg24
(lp296
g69
ag14
asg28
L10L
sg29
g142
sbag5
(g170
g7
Ntp297
Rp298
(dp299
g174
g17
sg15
g14
sg18
L117577L
sg19
S'E\x0bQ\n\xc3'
p300
sg21
L117581L
sg22
Nsg23
L4L
sg24
(lp301
g69
ag17
asg28
L10L
sg29
g142
sbag5
(g170
g7
Ntp302
Rp303
(dp304
g174
g17
sg15
g27
sg18
L122668L
sg19
S'C\x0bP\x0e\x14A\xc3'
p305
sg21
L122674L
sg22
Nsg23
L4L
sg24
(lp306
g27
ag17
ag49
asg28
L14L
sg29
g142
sbag5
(g170
g7
Ntp307
Rp308
(dp309
g174
g27
sg15
g69
sg18
L125239L
sg19
S'A\x0bE\x0e\x0cA\xc3'
p310
sg21
L125245L
sg22
Nsg23
L4L
sg24
(lp311
g27
ag14
asg28
L14L
sg29
g142
sbag5
(g170
g7
Ntp312
Rp313
(dp314
g174
g27
sg15
g69
sg18
L114740L
sg19
S'G\x0bE\n\xc3'
p315
sg21
L114744L
sg22
Nsg23
L4L
sg24
(lp316
g130
ag27
asg28
L10L
sg29
g142
sbag5
(g170
g7
Ntp317
Rp318
(dp319
g174
g27
sg15
g49
sg18
L125117L
sg19
S'G\x0bC\n\xc3'
p320
sg21
L125121L
sg22
Nsg23
L4L
sg24
(lp321
g130
ag27
asg28
L10L
sg29
g142
sbag5
(g170
g7
Ntp322
Rp323
(dp324
g174
g69
sg15
g17
sg18
L123865L
sg19
S'G\x0bj\n\xc3'
p325
sg21
L123869L
sg22
Nsg23
L4L
sg24
(lp326
g130
ag69
asg28
L10L
sg29
g142
sbag5
(g170
g7
Ntp327
Rp328
(dp329
g174
g14
sg15
g106
sg18
L120084L
sg19
S'G\x0bN\n\xc3'
p330
sg21
L120088L
sg22
Nsg23
L4L
sg24
(lp331
g130
ag14
asg28
L10L
sg29
g142
sbag5
(g170
g7
Ntp332
Rp333
(dp334
g174
g27
sg15
g49
sg18
L113185L
sg19
S'F\x0bC\n\xc3'
p335
sg21
L113189L
sg22
Nsg23
L4L
sg24
(lp336
g27
ag106
asg28
L10L
sg29
g142
sbag5
(g170
g7
Ntp337
Rp338
(dp339
g174
g17
sg15
g130
sg18
L114605L
sg19
S'F\x0bW\x0e\x14A\xc3'
p340
sg21
L114611L
sg22
Nsg23
L4L
sg24
(lp341
g27
ag17
ag106
asg28
L14L
sg29
g142
sbag5
(g170
g7
Ntp342
Rp343
(dp344
g174
g27
sg15
g69
sg18
L118012L
sg19
S'D\x0bE\n\xc3'
p345
sg21
L118016L
sg22
Nsg23
L5L
sg24
(lp346
g27
asg28
L10L
sg29
g142
sbag5
(g170
g7
Ntp347
Rp348
(dp349
g174
g49
sg15
g14
sg18
L112996L
sg19
S'\x0c\x83\x03Y\n\xc3'
p350
sg21
L113001L
sg22
Nsg23
L4L
sg24
(lp351
g27
ag49
asg28
L10L
sg29
g32
sbag5
(g170
g7
Ntp352
Rp353
(dp354
g174
g130
sg15
g106
sg18
L114728L
sg19
S'\x0c\x83\x03~\n\xc3'
p355
sg21
L114733L
sg22
Nsg23
L4L
sg24
(lp356
g130
ag27
asg28
L10L
sg29
g32
sbag5
(g170
g7
Ntp357
Rp358
(dp359
g174
g27
sg15
g69
sg18
L114741L
sg19
S'\x0bE\n\xc3'
p360
sg21
L114744L
sg22
Nsg23
L4L
sg24
(lp361
g27
asg28
L10L
sg29
g142
sbag5
(g170
g7
Ntp362
Rp363
(dp364
g174
g27
sg15
g49
sg18
L82095L
sg19
S'\x0b\x83\xc4\x1c[^_]\xc3'
p365
sg21
L82103L
sg22
Nsg23
L12L
sg24
(lp366
g130
ag27
ag69
asg28
L1583029444L
sg29
g142
sbag5
(g170
g7
Ntp367
Rp368
(dp369
g174
g27
sg15
g49
sg18
L113186L
sg19
S'\x0bC\n\xc3'
p370
sg21
L113189L
sg22
Nsg23
L4L
sg24
(lp371
g27
asg28
L10L
sg29
g142
sbag5
(g170
g7
Ntp372
Rp373
(dp374
g174
g27
sg15
g14
sg18
L22335L
sg19
S'\x0b\x81\xc4\x9c\x00\x00\x00[^_]\xc3'
p375
sg21
L22346L
sg22
Nsg23
L12L
sg24
(lp376
g130
ag27
ag69
asg28
L40132L
sg29
g142
sbag5
(g170
g7
Ntp377
Rp378
(dp379
g174
g69
sg15
g17
sg18
L123866L
sg19
S'\x0bj\n\xc3'
p380
sg21
L123869L
sg22
Nsg23
L4L
sg24
(lp381
g69
asg28
L10L
sg29
g142
sbag5
(g170
g7
Ntp382
Rp383
(dp384
g174
g14
sg15
g27
sg18
L120490L
sg19
S'\x0bH\x0e\x14A\xc3'
p385
sg21
L120495L
sg22
Nsg23
L4L
sg24
(lp386
g27
ag14
asg28
L14L
sg29
g142
sbag5
(g170
g7
Ntp387
Rp388
(dp389
g174
g14
sg15
g69
sg18
L133898L
sg19
S'\x0bM\x0e\x14A\xc3'
p390
sg21
L133903L
sg22
Nsg23
L4L
sg24
(lp391
g27
ag14
asg28
L14L
sg29
g142
sbag5
(g170
g7
Ntp392
Rp393
(dp394
g174
g14
sg15
g49
sg18
L47728L
sg19
S'\x0b\x8b\x16\x83\xc4\x04[^\x8d\x04\xc2\xc3'
p395
sg21
L47739L
sg22
Nsg23
L12L
sg24
(lp396
g27
ag49
ag106
ag14
asg28
L79987478L
sg29
g142
sbag5
(g170
g7
Ntp397
Rp398
(dp399
g174
g14
sg15
g130
sg18
L120096L
sg19
S'\x0bO\n\xc3'
p400
sg21
L120099L
sg22
Nsg23
L4L
sg24
(lp401
g14
asg28
L10L
sg29
g142
sbag5
(g170
g7
Ntp402
Rp403
(dp404
g174
g14
sg15
g106
sg18
L120085L
sg19
S'\x0bN\n\xc3'
p405
sg21
L120088L
sg22
Nsg23
L4L
sg24
(lp406
g14
asg28
L10L
sg29
g142
sbag5
(g170
g7
Ntp407
Rp408
(dp409
g174
g17
sg15
g27
sg18
L122669L
sg19
S'\x0bP\x0e\x14A\xc3'
p410
sg21
L122674L
sg22
Nsg23
L4L
sg24
(lp411
g27
ag17
asg28
L14L
sg29
g142
sbag5
(g170
g7
Ntp412
Rp413
(dp414
g174
g17
sg15
g14
sg18
L117578L
sg19
S'\x0bQ\n\xc3'
p415
sg21
L117581L
sg22
Nsg23
L4L
sg24
(lp416
g17
asg28
L10L
sg29
g142
sbag5
(g170
g7
Ntp417
Rp418
(dp419
g174
g17
sg15
g130
sg18
L114606L
sg19
S'\x0bW\x0e\x14A\xc3'
p420
sg21
L114611L
sg22
Nsg23
L4L
sg24
(lp421
g27
ag17
asg28
L14L
sg29
g142
sbasg1
(I5
tp422
Rp423
(lp424
g5
(cropd.Gadget
WriteMem_Gadget
p425
g7
Ntp426
Rp427
(dp428
g11
g14
sg15
g17
sg28
L4L
sg19
S'\x13\x00\x00\x85\xd2\x0fD\xd0\x8bB\x04\x89J\x04\xc3'
p429
sg21
L65011L
sg22
Nsg23
L4L
sg24
(lp430
g27
asg18
L64997L
sbag5
(g425
g7
Ntp431
Rp432
(dp433
g11
g14
sg15
g17
sg28
L4L
sg19
S'\x00\x00\x85\xd2\x0fD\xd0\x8bB\x04\x89J\x04\xc3'
p434
sg21
L65011L
sg22
Nsg23
L4L
sg24
(lp435
g27
asg18
L64998L
sbag5
(g425
g7
Ntp436
Rp437
(dp438
g11
g14
sg15
g17
sg28
L4L
sg19
S'\x00\x85\xd2\x0fD\xd0\x8bB\x04\x89J\x04\xc3'
p439
sg21
L65011L
sg22
Nsg23
L4L
sg24
(lp440
g27
asg18
L64999L
sbag5
(g425
g7
Ntp441
Rp442
(dp443
g11
g17
sg15
g27
sg28
L4680L
sg19
g63
sg21
L44532L
sg22
Nsg23
L4L
sg24
g64
sg18
L44524L
sbag5
(g425
g7
Ntp444
Rp445
(dp446
g11
g17
sg15
g27
sg28
L103519L
sg19
S'\x05\x17\x82\x01\x00\x89\x90H\x12\x00\x00\xc3'
p447
sg21
L44532L
sg22
Nsg23
L4L
sg24
(lp448
g27
asg18
L44521L
sbag5
(g425
g7
Ntp449
Rp450
(dp451
g11
g130
sg15
g49
sg28
L0L
sg19
S'\x83\xc4 \x89;[^_\xc3'
p452
sg21
L65189L
sg22
Nsg23
L48L
sg24
(lp453
g130
ag49
ag106
asg18
L65181L
sbag5
(g425
g7
Ntp454
Rp455
(dp456
g11
g14
sg15
g17
sg28
L4L
sg19
S'\x80`\x13\x00\x00\x85\xd2\x0fD\xd0\x8bB\x04\x89J\x04\xc3'
p457
sg21
L65011L
sg22
Nsg23
L4L
sg24
(lp458
g27
asg18
L64995L
sbag5
(g425
g7
Ntp459
Rp460
(dp461
g11
g14
sg15
g27
sg28
L4L
sg19
S'\x0fD\xd0\x8bB\x04\x89J\x04\xc3'
p462
sg21
L65011L
sg22
Nsg23
L4L
sg24
(lp463
g27
ag17
asg18
L65002L
sbag5
(g425
g7
Ntp464
Rp465
(dp466
g11
g17
sg15
g27
sg28
L4680L
sg19
S'\xff\x05\x17\x82\x01\x00\x89\x90H\x12\x00\x00\xc3'
p467
sg21
L44532L
sg22
Nsg23
L4L
sg24
(lp468
sg18
L44520L
sbag5
(g425
g7
Ntp469
Rp470
(dp471
g11
g27
sg15
g49
sg28
L1L
sg19
S'C\x87\x03\x86\x04\x83\x05\x03s\x03\n\xc3'
p472
sg21
L118480L
sg22
Nsg23
L4L
sg24
(lp473
g27
ag49
asg18
L118469L
sbag5
(g425
g7
Ntp474
Rp475
(dp476
g11
g14
sg15
g17
sg28
L4L
sg19
S'\x8d\x80`\x13\x00\x00\x85\xd2\x0fD\xd0\x8bB\x04\x89J\x04\xc3'
p477
sg21
L65011L
sg22
Nsg23
L4L
sg24
(lp478
g27
asg18
L64994L
sbag5
(g425
g7
Ntp479
Rp480
(dp481
g11
g106
sg15
g49
sg28
L0L
sg19
S'\x8dt&\x00\x8931\xc0[^\xc3'
p482
sg21
L48190L
sg22
Nsg23
L12L
sg24
(lp483
g27
ag49
ag106
asg18
L48180L
sbag5
(g425
g7
Ntp484
Rp485
(dp486
g11
g17
sg15
g27
sg28
L4680L
sg19
S'\x89\x90H\x12\x00\x00\xc3'
p487
sg21
L44532L
sg22
Nsg23
L4L
sg24
(lp488
sg18
L44526L
sbag5
(g425
g7
Ntp489
Rp490
(dp491
g11
g17
sg15
g27
sg28
L40L
sg19
S'\x89P(\x89H,\x83\xc4\x04[^\xc3'
p492
sg21
L65088L
sg22
Nsg23
L16L
sg24
(lp493
g49
ag106
asg18
L65077L
sbag5
(g425
g7
Ntp494
Rp495
(dp496
g11
g14
sg15
g27
sg28
L44L
sg19
g492
sg21
L65088L
sg22
Nsg23
L16L
sg24
g493
sg18
L65077L
sbag5
(g425
g7
Ntp497
Rp498
(dp499
g11
g14
sg15
g27
sg28
L44L
sg19
S'\x89H,\x83\xc4\x04[^\xc3'
p500
sg21
L65088L
sg22
Nsg23
L16L
sg24
(lp501
g49
ag106
asg18
L65080L
sbag5
(g425
g7
Ntp502
Rp503
(dp504
g11
g17
sg15
g27
sg28
L0L
sg19
S'\x89\x10\xc3'
p505
sg21
L64880L
sg22
Nsg23
L4L
sg24
(lp506
sg18
L64878L
sbag5
(g425
g7
Ntp507
Rp508
(dp509
g11
g130
sg15
g49
sg28
L0L
sg19
S'\x89;[^_\xc3'
p510
sg21
L65189L
sg22
Nsg23
L16L
sg24
(lp511
g130
ag49
ag106
asg18
L65184L
sbag5
(g425
g7
Ntp512
Rp513
(dp514
g11
g17
sg15
g49
sg28
L0L
sg19
S'\x89\x13[^\xc3'
p515
sg21
L64969L
sg22
Nsg23
L12L
sg24
(lp516
g49
ag106
asg18
L64965L
sbag5
(g425
g7
Ntp517
Rp518
(dp519
g11
g106
sg15
g49
sg28
L0L
sg19
S'\x8931\xc0[^\xc3'
p520
sg21
L48190L
sg22
Nsg23
L12L
sg24
(lp521
g27
ag49
ag106
asg18
L48184L
sbag5
(g425
g7
Ntp522
Rp523
(dp524
g11
g14
sg15
g17
sg28
L4L
sg19
S'\x89J\x04\xc3'
p525
sg21
L65011L
sg22
Nsg23
L4L
sg24
(lp526
sg18
L65008L
sbag5
(g425
g7
Ntp527
Rp528
(dp529
g11
g14
sg15
g17
sg28
L4L
sg19
S'\x8bB\x04\x89J\x04\xc3'
p530
sg21
L65011L
sg22
Nsg23
L4L
sg24
(lp531
g27
asg18
L65005L
sbag5
(g425
g7
Ntp532
Rp533
(dp534
g11
g14
sg15
g17
sg28
L4L
sg19
S'\x08\x8d\x80`\x13\x00\x00\x85\xd2\x0fD\xd0\x8bB\x04\x89J\x04\xc3'
p535
sg21
L65011L
sg22
Nsg23
L4L
sg24
(lp536
g27
asg18
L64993L
sbag5
(g425
g7
Ntp537
Rp538
(dp539
g11
g27
sg15
g49
sg28
L1L
sg19
S'\x08\x85\x02B\r\x05C\x87\x03\x86\x04\x83\x05\x03s\x03\n\xc3'
p540
sg21
L118480L
sg22
Nsg23
L4L
sg24
(lp541
g27
ag49
asg18
L118463L
sbag5
(g425
g7
Ntp542
Rp543
(dp544
g11
g14
sg15
g17
sg28
L4L
sg19
S'\x85\xd2\x0fD\xd0\x8bB\x04\x89J\x04\xc3'
p545
sg21
L65011L
sg22
Nsg23
L4L
sg24
(lp546
g27
asg18
L65000L
sbag5
(g425
g7
Ntp547
Rp548
(dp549
g11
g27
sg15
g49
sg28
L0L
sg19
S'\x87\x03\x86\x04\x83\x05\x03s\x03\n\xc3'
p550
sg21
L118480L
sg22
Nsg23
L4L
sg24
(lp551
g27
asg18
L118470L
sbasg1
(I3
tp552
Rp553
(lp554
g5
(cropd.Gadget
BinOp_Gadget
p555
g7
Ntp556
Rp557
(dp558
g174
g17
sg19
g180
sg21
L122674L
sg22
NsS'src2'
p559
g17
sg23
L4L
sS'src1'
p560
g12
(I8
tp561
Rp562
sg24
g181
sg18
L122667L
sg29
g142
sbag5
(g555
g7
Ntp563
Rp564
(dp565
g174
g27
sg19
S'\x00\x00\x00\x00\xb8\x01\x00\x00\x00\xc3'
p566
sg21
L81725L
sg22
Nsg559
g27
sg23
L4L
sg560
g27
sg24
(lp567
g27
asg18
L81716L
sg29
g30
(I4
tp568
Rp569
sbag5
(g555
g7
Ntp570
Rp571
(dp572
g174
g27
sg19
g566
sg21
L81725L
sg22
Nsg559
g69
sg23
L4L
sg560
g27
sg24
g567
sg18
L81716L
sg29
g569
sbag5
(g555
g7
Ntp573
Rp574
(dp575
g174
g27
sg19
g566
sg21
L81725L
sg22
Nsg559
g106
sg23
L4L
sg560
g27
sg24
g567
sg18
L81716L
sg29
g569
sbag5
(g555
g7
Ntp576
Rp577
(dp578
g174
g27
sg19
g566
sg21
L81725L
sg22
Nsg559
g14
sg23
L4L
sg560
g27
sg24
g567
sg18
L81716L
sg29
g569
sbag5
(g555
g7
Ntp579
Rp580
(dp581
g174
g27
sg19
S'\x00\x00\xb8\x01\x00\x00\x00\xc3'
p582
sg21
L81725L
sg22
Nsg559
g27
sg23
L4L
sg560
g27
sg24
(lp583
g27
asg18
L81718L
sg29
g569
sbag5
(g555
g7
Ntp584
Rp585
(dp586
g174
g27
sg19
S'&\x00\x00\x00\x00\xb8\x01\x00\x00\x00\xc3'
p587
sg21
L81725L
sg22
Nsg559
g27
sg23
L4L
sg560
g27
sg24
(lp588
g27
asg18
L81715L
sg29
g569
sbag5
(g555
g7
Ntp589
Rp590
(dp591
g174
g14
sg19
S'\x01\xe9=\xb1\xff\xff\x90\x8dt&\x00\xb8\xff\xff\xff\xff\xc3'
p592
sg21
L38893L
sg22
Nsg559
g14
sg23
L4L
sg560
g69
sg24
(lp593
g27
ag14
asg18
L38877L
sg29
g32
sbag5
(g555
g7
Ntp594
Rp595
(dp596
g174
g14
sg19
S'\x01\xe9\xbd\xb0\xff\xff\x90\x8dt&\x00\xb8\xff\xff\xff\xff\xc3'
p597
sg21
L39021L
sg22
Nsg559
g14
sg23
L4L
sg560
g69
sg24
(lp598
g27
ag69
ag14
asg18
L39005L
sg29
g32
sbag5
(g555
g7
Ntp599
Rp600
(dp601
g174
g14
sg19
S'\x01\xe9\xbd\xb1\xff\xff\x90\x8dt&\x00\xb8\xff\xff\xff\xff\xc3'
p602
sg21
L38765L
sg22
Nsg559
g14
sg23
L4L
sg560
g69
sg24
(lp603
g27
ag69
ag14
asg18
L38749L
sg29
g32
sbag5
(g555
g7
Ntp604
Rp605
(dp606
g174
g27
sg19
S'\xf7\xfe\xff\x83\xc4\x14[^\xc3'
p607
sg21
L76164L
sg22
Nsg559
g106
sg23
L4L
sg560
g27
sg24
(lp608
g27
ag17
asg18
L76156L
sg29
g569
sbag5
(g555
g7
Ntp609
Rp610
(dp611
g174
g27
sg19
S'\x8d\xb4&\x00\x00\x00\x00\xb8\x01\x00\x00\x00\xc3'
p612
sg21
L81725L
sg22
Nsg559
g27
sg23
L4L
sg560
g27
sg24
(lp613
g27
asg18
L81713L
sg29
g569
sbag5
(g555
g7
Ntp614
Rp615
(dp616
g174
g27
sg19
S'\x8dv\x001\xc0\xc3'
p617
sg21
L46386L
sg22
Nsg559
g14
sg23
L4L
sg560
g562
sg24
(lp618
g27
asg18
L46381L
sg29
g30
(I7
tp619
Rp620
sbag5
(g555
g7
Ntp621
Rp622
(dp623
g174
g27
sg19
S'\xb4&\x00\x00\x00\x00\xb8\x01\x00\x00\x00\xc3'
p624
sg21
L81725L
sg22
Nsg559
g27
sg23
L4L
sg560
g27
sg24
(lp625
g27
asg18
L81714L
sg29
g569
sbag5
(g555
g7
Ntp626
Rp627
(dp628
g174
g27
sg19
g624
sg21
L81725L
sg22
Nsg559
g130
sg23
L4L
sg560
g27
sg24
g625
sg18
L81714L
sg29
g569
sbag5
(g555
g7
Ntp629
Rp630
(dp631
g174
g27
sg19
g624
sg21
L81725L
sg22
Nsg559
g49
sg23
L4L
sg560
g27
sg24
g625
sg18
L81714L
sg29
g569
sbag5
(g555
g7
Ntp632
Rp633
(dp634
g174
g27
sg19
g624
sg21
L81725L
sg22
Nsg559
g14
sg23
L4L
sg560
g27
sg24
g625
sg18
L81714L
sg29
g569
sbag5
(g555
g7
Ntp635
Rp636
(dp637
g174
g27
sg19
S'\xb8\x01\x00\x00\x00\x83\xc4\x04[^\xc3'
p638
sg21
L45258L
sg22
Nsg559
g27
sg23
L16L
sg560
g27
sg24
(lp639
g27
ag49
ag106
asg18
L45248L
sg29
g569
sbag5
(g555
g7
Ntp640
Rp641
(dp642
g174
g27
sg19
S'\xb8\x01\x00\x00\x00[^\xc3'
p643
sg21
L48199L
sg22
Nsg559
g27
sg23
L12L
sg560
g27
sg24
(lp644
g27
ag49
ag106
asg18
L48192L
sg29
g569
sbag5
(g555
g7
Ntp645
Rp646
(dp647
g174
g27
sg19
g643
sg21
L48199L
sg22
Nsg559
g106
sg23
L12L
sg560
g27
sg24
g644
sg18
L48192L
sg29
g569
sbag5
(g555
g7
Ntp648
Rp649
(dp650
g174
g27
sg19
g643
sg21
L48199L
sg22
Nsg559
g14
sg23
L12L
sg560
g27
sg24
g644
sg18
L48192L
sg29
g569
sbag5
(g555
g7
Ntp651
Rp652
(dp653
g174
g27
sg19
S'\xb8\x01\x00\x00\x00^_]\xc3'
p654
sg21
L81304L
sg22
Nsg559
g27
sg23
L16L
sg560
g27
sg24
(lp655
g130
ag27
ag69
ag106
asg18
L81296L
sg29
g569
sbag5
(g555
g7
Ntp656
Rp657
(dp658
g174
g27
sg19
g654
sg21
L81304L
sg22
Nsg559
g49
sg23
L16L
sg560
g27
sg24
g655
sg18
L81296L
sg29
g569
sbag5
(g555
g7
Ntp659
Rp660
(dp661
g174
g27
sg19
S'\xb8\x01\x00\x00\x00^_\xc3'
p662
sg21
L30309L
sg22
Nsg559
g27
sg23
L12L
sg560
g27
sg24
(lp663
g130
ag27
ag106
asg18
L30302L
sg29
g569
sbag5
(g555
g7
Ntp664
Rp665
(dp666
g174
g27
sg19
S'\xb8\x01\x00\x00\x00\xc3'
p667
sg21
L38773L
sg22
Nsg559
g27
sg23
L4L
sg560
g27
sg24
(lp668
g27
asg18
L38768L
sg29
g569
sbag5
(g555
g7
Ntp669
Rp670
(dp671
g174
g27
sg19
g667
sg21
L38773L
sg22
Nsg559
g49
sg23
L4L
sg560
g27
sg24
g668
sg18
L38768L
sg29
g569
sbag5
(g555
g7
Ntp672
Rp673
(dp674
g174
g27
sg19
S'\xba\x01\x00\x00\x00\x83\xc4\x08\x89\xd0[\xc3'
p675
sg21
L81965L
sg22
Nsg559
g27
sg23
L16L
sg560
g27
sg24
(lp676
g27
ag17
ag49
asg18
L81954L
sg29
g569
sbag5
(g555
g7
Ntp677
Rp678
(dp679
g174
g27
sg19
S'\x90\xb8\x01\x00\x00\x00[^\xc3'
p680
sg21
L48199L
sg22
Nsg559
g27
sg23
L12L
sg560
g27
sg24
(lp681
g27
ag49
ag106
asg18
L48191L
sg29
g569
sbag5
(g555
g7
Ntp682
Rp683
(dp684
g174
g27
sg19
g680
sg21
L48199L
sg22
Nsg559
g69
sg23
L12L
sg560
g27
sg24
g681
sg18
L48191L
sg29
g569
sbag5
(g555
g7
Ntp685
Rp686
(dp687
g174
g27
sg19
g680
sg21
L48199L
sg22
Nsg559
g17
sg23
L12L
sg560
g27
sg24
g681
sg18
L48191L
sg29
g569
sbag5
(g555
g7
Ntp688
Rp689
(dp690
g174
g27
sg19
g680
sg21
L48199L
sg22
Nsg559
g106
sg23
L12L
sg560
g27
sg24
g681
sg18
L48191L
sg29
g569
sbag5
(g555
g7
Ntp691
Rp692
(dp693
g174
g27
sg19
S'\x90\xb8\x01\x00\x00\x00\xc3'
p694
sg21
L38773L
sg22
Nsg559
g27
sg23
L4L
sg560
g27
sg24
(lp695
g27
asg18
L38767L
sg29
g569
sbag5
(g555
g7
Ntp696
Rp697
(dp698
g174
g27
sg19
S'\x90[\xb8\x01\x00\x00\x00^_\xc3'
p699
sg21
L47528L
sg22
Nsg559
g27
sg23
L16L
sg560
g27
sg24
(lp700
g130
ag27
ag49
ag106
asg18
L47519L
sg29
g569
sbag5
(g555
g7
Ntp701
Rp702
(dp703
g174
g27
sg19
g699
sg21
L47528L
sg22
Nsg559
g17
sg23
L16L
sg560
g27
sg24
g700
sg18
L47519L
sg29
g569
sbag5
(g555
g7
Ntp704
Rp705
(dp706
g174
g27
sg19
g699
sg21
L47528L
sg22
Nsg559
g106
sg23
L16L
sg560
g27
sg24
g700
sg18
L47519L
sg29
g569
sbag5
(g555
g7
Ntp707
Rp708
(dp709
g174
g27
sg19
S'\x0c[\xb8\x01\x00\x00\x00^_]\xc3'
p710
sg21
L81304L
sg22
Nsg559
g27
sg23
L16L
sg560
g27
sg24
(lp711
g130
ag27
ag69
ag106
asg18
L81294L
sg29
g569
sbag5
(g555
g7
Ntp712
Rp713
(dp714
g174
g27
sg19
g710
sg21
L81304L
sg22
Nsg559
g69
sg23
L16L
sg560
g27
sg24
g711
sg18
L81294L
sg29
g569
sbag5
(g555
g7
Ntp715
Rp716
(dp717
g174
g27
sg19
g710
sg21
L81304L
sg22
Nsg559
g17
sg23
L16L
sg560
g27
sg24
g711
sg18
L81294L
sg29
g569
sbag5
(g555
g7
Ntp718
Rp719
(dp720
g174
g17
sg19
S'\t\xc2\x0f\x94\xc0\xc3'
p721
sg21
L16131L
sg22
Nsg559
g17
sg23
L4L
sg560
g27
sg24
(lp722
g27
ag17
asg18
L16126L
sg29
g142
sbag5
(g555
g7
Ntp723
Rp724
(dp725
g174
g27
sg19
S'[\xb8\x01\x00\x00\x00^_]\xc3'
p726
sg21
L81304L
sg22
Nsg559
g27
sg23
L20L
sg560
g27
sg24
(lp727
g130
ag27
ag69
ag49
ag106
asg18
L81295L
sg29
g569
sbag5
(g555
g7
Ntp728
Rp729
(dp730
g174
g27
sg19
g726
sg21
L81304L
sg22
Nsg559
g69
sg23
L20L
sg560
g27
sg24
g727
sg18
L81295L
sg29
g569
sbag5
(g555
g7
Ntp731
Rp732
(dp733
g174
g27
sg19
g726
sg21
L81304L
sg22
Nsg559
g130
sg23
L20L
sg560
g27
sg24
g727
sg18
L81295L
sg29
g569
sbag5
(g555
g7
Ntp734
Rp735
(dp736
g174
g27
sg19
g726
sg21
L81304L
sg22
Nsg559
g106
sg23
L20L
sg560
g27
sg24
g727
sg18
L81295L
sg29
g569
sbag5
(g555
g7
Ntp737
Rp738
(dp739
g174
g27
sg19
S'[\xb8\x01\x00\x00\x00^_\xc3'
p740
sg21
L30309L
sg22
Nsg559
g27
sg23
L16L
sg560
g27
sg24
(lp741
g130
ag27
ag49
ag106
asg18
L30301L
sg29
g569
sbag5
(g555
g7
Ntp742
Rp743
(dp744
g174
g27
sg19
g740
sg21
L30309L
sg22
Nsg559
g69
sg23
L16L
sg560
g27
sg24
g741
sg18
L30301L
sg29
g569
sbag5
(g555
g7
Ntp745
Rp746
(dp747
g174
g27
sg19
g740
sg21
L30309L
sg22
Nsg559
g49
sg23
L16L
sg560
g27
sg24
g741
sg18
L30301L
sg29
g569
sbag5
(g555
g7
Ntp748
Rp749
(dp750
g174
g27
sg19
g740
sg21
L30309L
sg22
Nsg559
g14
sg23
L16L
sg560
g27
sg24
g741
sg18
L30301L
sg29
g569
sbag5
(g555
g7
Ntp751
Rp752
(dp753
g174
g17
sg19
S'[^\t\xc2\x0f\x94\xc0\xc3'
p754
sg21
L16131L
sg22
Nsg559
g17
sg23
L12L
sg560
g27
sg24
(lp755
g27
ag17
ag49
ag106
asg18
L16124L
sg29
g142
sbag5
(g555
g7
Ntp756
Rp757
(dp758
g174
g27
sg19
S'[1\xc0^_\xc3'
p759
sg21
L47491L
sg22
Nsg559
g14
sg23
L16L
sg560
g562
sg24
(lp760
g130
ag27
ag49
ag106
asg18
L47486L
sg29
g620
sbag5
(g555
g7
Ntp761
Rp762
(dp763
g174
g17
sg19
S'^\t\xc2\x0f\x94\xc0\xc3'
p764
sg21
L16131L
sg22
Nsg559
g17
sg23
L8L
sg560
g27
sg24
(lp765
g27
ag17
ag106
asg18
L16125L
sg29
g142
sbag5
(g555
g7
Ntp766
Rp767
(dp768
g174
g27
sg19
S'\x0e\xb0\x01X\n\x0e\x14A\xc3'
p769
sg21
L115798L
sg22
Nsg559
g130
sg23
L4L
sg560
g27
sg24
(lp770
g27
ag14
asg18
L115790L
sg29
g569
sbag5
(g555
g7
Ntp771
Rp772
(dp773
g174
g27
sg19
g151
sg21
L30309L
sg22
Nsg559
g27
sg23
L16L
sg560
g27
sg24
g152
sg18
L30298L
sg29
g569
sbag5
(g555
g7
Ntp774
Rp775
(dp776
g174
g27
sg19
g151
sg21
L30309L
sg22
Nsg559
g130
sg23
L16L
sg560
g27
sg24
g152
sg18
L30298L
sg29
g569
sbag5
(g555
g7
Ntp777
Rp778
(dp779
g174
g17
sg19
S'3\xd1\x00\x00\x83\xc4\x08[\xc3'
p780
sg21
L89815L
sg22
Nsg559
g14
sg23
L16L
sg560
g17
sg24
(lp781
g17
ag49
asg18
L89807L
sg29
g166
sbag5
(g555
g7
Ntp782
Rp783
(dp784
g174
g17
sg19
S'1\xf2\x89\x13[^\xc3'
p785
sg21
L64969L
sg22
Nsg559
g106
sg23
L12L
sg560
g17
sg24
(lp786
g17
ag49
ag106
asg18
L64963L
sg29
g166
sbasg1
(I4
tp787
Rp788
(lp789
g5
(cropd.Gadget
ReadMem_Gadget
p790
g7
Ntp791
Rp792
(dp793
g174
g27
sg15
g17
sg28
L4L
sg19
g429
sg21
L65011L
sg22
Nsg23
L4L
sg24
g430
sg18
L64997L
sbag5
(g790
g7
Ntp794
Rp795
(dp796
g174
g27
sg15
g27
sg28
L0L
sg19
S'\x00\x00\x85\xc0\x0fD\xc2\x8b\x00\xc3'
p797
sg21
L64844L
sg22
Nsg23
L4L
sg24
(lp798
g27
asg18
L64835L
sbag5
(g790
g7
Ntp799
Rp800
(dp801
g174
g27
sg15
g17
sg28
L4L
sg19
g434
sg21
L65011L
sg22
Nsg23
L4L
sg24
g435
sg18
L64998L
sbag5
(g790
g7
Ntp802
Rp803
(dp804
g174
g27
sg15
g17
sg28
L4L
sg19
g439
sg21
L65011L
sg22
Nsg23
L4L
sg24
g440
sg18
L64999L
sbag5
(g790
g7
Ntp805
Rp806
(dp807
g174
g27
sg15
g27
sg28
L0L
sg19
S'\x00\x85\xc0\x0fD\xc2\x8b\x00\xc3'
p808
sg21
L64844L
sg22
Nsg23
L4L
sg24
(lp809
g27
asg18
L64836L
sbag5
(g790
g7
Ntp810
Rp811
(dp812
g174
g27
sg15
g17
sg28
L4L
sg19
g457
sg21
L65011L
sg22
Nsg23
L4L
sg24
g458
sg18
L64995L
sbag5
(g790
g7
Ntp813
Rp814
(dp815
g174
g27
sg15
g17
sg28
L0L
sg19
S'\x0fD\xc2\x8b\x00\xc3'
p816
sg21
L64844L
sg22
Nsg23
L4L
sg24
(lp817
g27
asg18
L64839L
sbag5
(g790
g7
Ntp818
Rp819
(dp820
g174
g27
sg15
g27
sg28
L4L
sg19
g462
sg21
L65011L
sg22
Nsg23
L4L
sg24
g463
sg18
L65002L
sbag5
(g790
g7
Ntp821
Rp822
(dp823
g174
g27
sg15
g17
sg28
L4L
sg19
g477
sg21
L65011L
sg22
Nsg23
L4L
sg24
g478
sg18
L64994L
sbag5
(g790
g7
Ntp824
Rp825
(dp826
g174
g27
sg15
g27
sg28
L0L
sg19
S'\x8d\x92`\x13\x00\x00\x85\xc0\x0fD\xc2\x8b\x00\xc3'
p827
sg21
L64844L
sg22
Nsg23
L4L
sg24
(lp828
g27
ag17
asg18
L64831L
sbag5
(g790
g7
Ntp829
Rp830
(dp831
g174
g27
sg15
g27
sg28
L16L
sg19
S'\x8b@\x10\xc3'
p832
sg21
L48551L
sg22
Nsg23
L4L
sg24
(lp833
g27
asg18
L48548L
sbag5
(g790
g7
Ntp834
Rp835
(dp836
g174
g27
sg15
g27
sg28
L12L
sg19
S'\x8b@\x0c\xc3'
p837
sg21
L48535L
sg22
Nsg23
L4L
sg24
(lp838
g27
asg18
L48532L
sbag5
(g790
g7
Ntp839
Rp840
(dp841
g174
g27
sg15
g27
sg28
L8L
sg19
S'\x8b@\x08\xc3'
p842
sg21
L48519L
sg22
Nsg23
L4L
sg24
(lp843
g27
asg18
L48516L
sbag5
(g790
g7
Ntp844
Rp845
(dp846
g174
g27
sg15
g27
sg28
L0L
sg19
S'\x8b\x00\x83\xc4\x04[^\xc3'
p847
sg21
L49260L
sg22
Nsg23
L16L
sg24
(lp848
g27
ag49
ag106
asg18
L49253L
sbag5
(g790
g7
Ntp849
Rp850
(dp851
g174
g27
sg15
g27
sg28
L0L
sg19
S'\x8b\x00\xc3'
p852
sg21
L64844L
sg22
Nsg23
L4L
sg24
(lp853
g27
asg18
L64842L
sbag5
(g790
g7
Ntp854
Rp855
(dp856
g174
g27
sg15
g49
sg28
L0L
sg19
S'\x8b\x03[^_\xc3'
p857
sg21
L49077L
sg22
Nsg23
L16L
sg24
(lp858
g130
ag27
ag49
ag106
asg18
L49072L
sbag5
(g790
g7
Ntp859
Rp860
(dp861
g174
g27
sg15
g17
sg28
L4L
sg19
g530
sg21
L65011L
sg22
Nsg23
L4L
sg24
g531
sg18
L65005L
sbag5
(g790
g7
Ntp862
Rp863
(dp864
g174
g17
sg15
g106
sg28
L0L
sg19
S'\x8b\x16\x83\xc4\x04[^\x8d\x04\xc2\xc3'
p865
sg21
L47739L
sg22
Nsg23
L16L
sg24
(lp866
g27
ag17
ag49
ag106
asg18
L47729L
sbag5
(g790
g7
Ntp867
Rp868
(dp869
g174
g27
sg15
g49
sg28
L0L
sg19
S'\x90\x8b\x03[^_\xc3'
p870
sg21
L49077L
sg22
Nsg23
L16L
sg24
(lp871
g130
ag27
ag49
ag106
asg18
L49071L
sbag5
(g790
g7
Ntp872
Rp873
(dp874
g174
g27
sg15
g17
sg28
L4L
sg19
g535
sg21
L65011L
sg22
Nsg23
L4L
sg24
g536
sg18
L64993L
sbag5
(g790
g7
Ntp875
Rp876
(dp877
g174
g27
sg15
g27
sg28
L0L
sg19
S'\x85\xc0\x0fD\xc2\x8b\x00\xc3'
p878
sg21
L64844L
sg22
Nsg23
L4L
sg24
(lp879
g27
asg18
L64837L
sbag5
(g790
g7
Ntp880
Rp881
(dp882
g174
g27
sg15
g17
sg28
L4L
sg19
g545
sg21
L65011L
sg22
Nsg23
L4L
sg24
g546
sg18
L65000L
sbasg1
(I8
tp883
Rp884
(lp885
g5
(cropd.Gadget
Lahf_Gadget
p886
g7
Ntp887
Rp888
(dp889
g19
S'\xec[\xc3'
p890
sg22
Nsg21
L45087L
sg23
L8L
sg24
(lp891
g27
ag49
asg18
L45085L
sbag5
(g886
g7
Ntp892
Rp893
(dp894
g19
S'\x89\xf0[^_\xc3'
p895
sg22
Nsg21
L49069L
sg23
L16L
sg24
(lp896
g130
ag27
ag49
ag106
asg18
L49064L
sbasg1
(I2
tp897
Rp898
(lp899
g5
(cropd.Gadget
CopyReg_Gadget
p900
g7
Ntp901
Rp902
(dp903
g11
g17
sg174
g27
sg19
S'\x00\x00\x83\xc4\x08\x89\xd0[\xc3'
p904
sg21
L81965L
sg22
Nsg23
L16L
sg24
(lp905
g27
ag49
asg18
L81957L
sbag5
(g900
g7
Ntp906
Rp907
(dp908
g11
g17
sg174
g27
sg19
S'\x01\x00\x00\x00\x83\xc4\x08\x89\xd0[\xc3'
p909
sg21
L81965L
sg22
Nsg23
L16L
sg24
(lp910
g27
ag49
asg18
L81955L
sbag5
(g900
g7
Ntp911
Rp912
(dp913
g11
g17
sg174
g27
sg19
S'\x83\xc4\x04\x89\xd0[^\xc3'
p914
sg21
L45168L
sg22
Nsg23
L16L
sg24
(lp915
g27
ag49
ag106
asg18
L45161L
sbag5
(g900
g7
Ntp916
Rp917
(dp918
g11
g17
sg174
g27
sg19
S'\x83\xc4\x08\x89\xd0[\xc3'
p919
sg21
L81965L
sg22
Nsg23
L16L
sg24
(lp920
g27
ag49
asg18
L81959L
sbag5
(g900
g7
Ntp921
Rp922
(dp923
g11
g17
sg174
g27
sg19
S'$\x08\x89\xd0\xc3'
p924
sg21
L47679L
sg22
Nsg23
L4L
sg24
(lp925
g27
asg18
L47675L
sbag5
(g900
g7
Ntp926
Rp927
(dp928
g11
g17
sg174
g27
sg19
S'\x83|o\xff\xff[^_\x0fE\xc2\xc3'
p929
sg21
L59977L
sg22
Nsg23
L16L
sg24
(lp930
g130
ag27
ag49
ag106
asg18
L59966L
sbag5
(g900
g7
Ntp931
Rp932
(dp933
g11
g17
sg174
g27
sg19
S'\x83\xff\t[\x0fE\xc2^_\xc3'
p934
sg21
L59918L
sg22
Nsg23
L16L
sg24
(lp935
g130
ag27
ag49
ag106
asg18
L59909L
sbag5
(g900
g7
Ntp936
Rp937
(dp938
g11
g17
sg174
g27
sg19
S'\xff\t[\x0fE\xc2^_\xc3'
p939
sg21
L59918L
sg22
Nsg23
L16L
sg24
(lp940
g130
ag27
ag49
ag106
asg18
L59910L
sbag5
(g900
g7
Ntp941
Rp942
(dp943
g11
g17
sg174
g27
sg19
S'\x89\xd0[^\xc3'
p944
sg21
L45168L
sg22
Nsg23
L12L
sg24
(lp945
g27
ag49
ag106
asg18
L45164L
sbag5
(g900
g7
Ntp946
Rp947
(dp948
g11
g17
sg174
g27
sg19
S'\x89\xd0[\xc3'
p949
sg21
L81965L
sg22
Nsg23
L8L
sg24
(lp950
g27
ag49
asg18
L81962L
sbag5
(g900
g7
Ntp951
Rp952
(dp953
g11
g17
sg174
g27
sg19
S'\x89\xd0\xc3'
p954
sg21
L47679L
sg22
Nsg23
L4L
sg24
(lp955
g27
asg18
L47677L
sbag5
(g900
g7
Ntp956
Rp957
(dp958
g11
g17
sg174
g27
sg19
S'\x89\xd7\x89\xf8[^_\xc3'
p959
sg21
L44887L
sg22
Nsg23
L16L
sg24
(lp960
g130
ag27
ag49
ag106
asg18
L44880L
sbag5
(g900
g7
Ntp961
Rp962
(dp963
g11
g17
sg174
g27
sg19
S'\xef\x83\xc4\x04\x89\xd0[^\xc3'
p964
sg21
L45168L
sg22
Nsg23
L16L
sg24
(lp965
g27
ag49
ag106
asg18
L45160L
sbag5
(g900
g7
Ntp966
Rp967
(dp968
g11
g17
sg174
g27
sg19
S'[^_\x0fE\xc2\xc3'
p969
sg21
L59873L
sg22
Nsg23
L16L
sg24
(lp970
g130
ag27
ag49
ag106
asg18
L59867L
sbag5
(g900
g7
Ntp971
Rp972
(dp973
g11
g17
sg174
g27
sg19
S'_\x0fE\xc2\xc3'
p974
sg21
L59873L
sg22
Nsg23
L8L
sg24
(lp975
g130
ag27
asg18
L59869L
sbag5
(g900
g7
Ntp976
Rp977
(dp978
g11
g17
sg174
g27
sg19
S'\x83to\xff\xff[^_\x0fE\xc2\xc3'
p979
sg21
L59873L
sg22
Nsg23
L16L
sg24
(lp980
g130
ag27
ag49
ag106
asg18
L59862L
sbasg1
(I9
tp981
Rp982
(lp983
sg1
(I1
tp984
Rp985
(lp986
g5
(cropd.Gadget
LoadConst_Gadget
p987
g7
Ntp988
Rp989
(dp990
S'register'
p991
g49
sg19
S'?\x83\xc4\x18[\xc3'
p992
sg21
L17041L
sg28
I24
sg22
Nsg23
L32L
sg24
(lp993
g27
ag49
asg18
L17036L
sbag5
(g987
g7
Ntp994
Rp995
(dp996
g991
g130
sg19
S'\x14[^_]\xc3'
p997
sg21
L85473L
sg28
I4
sg22
Nsg23
L16L
sg24
(lp998
g130
ag27
ag69
ag106
asg18
L85468L
sbag5
(g987
g7
Ntp999
Rp1000
(dp1001
g991
g69
sg19
g997
sg21
L85473L
sg28
I8
sg22
Nsg23
L16L
sg24
g998
sg18
L85468L
sbag5
(g987
g7
Ntp1002
Rp1003
(dp1004
g991
g106
sg19
g997
sg21
L85473L
sg28
I0
sg22
Nsg23
L16L
sg24
g998
sg18
L85468L
sbag5
(g987
g7
Ntp1005
Rp1006
(dp1007
g991
g106
sg19
S'\x14[^\xc3'
p1008
sg21
L21031L
sg28
I0
sg22
Nsg23
L8L
sg24
(lp1009
g27
ag106
asg18
L21028L
sbag5
(g987
g7
Ntp1010
Rp1011
(dp1012
g991
g130
sg19
S'\x12\x00\x00[^_]\xc3'
p1013
sg21
L26415L
sg28
I0
sg22
Nsg23
L12L
sg24
(lp1014
g130
ag27
ag69
asg18
L26408L
sbag5
(g987
g7
Ntp1015
Rp1016
(dp1017
g991
g69
sg19
g1013
sg21
L26415L
sg28
I4
sg22
Nsg23
L12L
sg24
g1014
sg18
L26408L
sbag5
(g987
g7
Ntp1018
Rp1019
(dp1020
g991
g106
sg19
S'\x12\x84\xd2\xb8\x01\x00\x00\x00t\t[^\xc3'
p1021
sg21
L20353L
sg28
I0
sg22
Nsg23
L8L
sg24
(lp1022
g27
ag106
asg18
L20341L
sbag5
(g987
g7
Ntp1023
Rp1024
(dp1025
g991
g49
sg19
S'\x10\xb8\x01\x00\x00\x00\x83\xc4\x04[^\xc3'
p1026
sg21
L45258L
sg28
I4
sg22
Nsg23
L16L
sg24
(lp1027
g49
ag106
asg18
L45247L
sbag5
(g987
g7
Ntp1028
Rp1029
(dp1030
g991
g106
sg19
g1026
sg21
L45258L
sg28
I8
sg22
Nsg23
L16L
sg24
g1027
sg18
L45247L
sbag5
(g987
g7
Ntp1031
Rp1032
(dp1033
g991
g49
sg19
S'\x10\xb8\xff\xff\xff\xff[^\xc3'
p1034
sg21
L39671L
sg28
I0
sg22
Nsg23
L12L
sg24
(lp1035
g49
ag106
asg18
L39663L
sbag5
(g987
g7
Ntp1036
Rp1037
(dp1038
g991
g106
sg19
g1034
sg21
L39671L
sg28
I4
sg22
Nsg23
L12L
sg24
g1035
sg18
L39663L
sbag5
(g987
g7
Ntp1039
Rp1040
(dp1041
g991
g130
sg19
S'\x10\x00\x00\x00\x00[^_\xc3'
p1042
sg21
L50077L
sg28
I0
sg22
Nsg23
L8L
sg24
(lp1043
g130
asg18
L50069L
sbag5
(g987
g7
Ntp1044
Rp1045
(dp1046
g991
g130
sg19
S'\x10\x85\xc0uK[^_\xc3'
p1047
sg21
L44658L
sg28
I4
sg22
Nsg23
L12L
sg24
(lp1048
g130
ag106
asg18
L44650L
sbag5
(g987
g7
Ntp1049
Rp1050
(dp1051
g991
g106
sg19
g1047
sg21
L44658L
sg28
I0
sg22
Nsg23
L12L
sg24
g1048
sg18
L44650L
sbag5
(g987
g7
Ntp1052
Rp1053
(dp1054
g991
g130
sg19
S'\x10\x83\xc4\x0c[^_]\xc3'
p1055
sg21
L21474L
sg28
I0
sg22
Nsg23
L12L
sg24
(lp1056
g130
ag69
asg18
L21466L
sbag5
(g987
g7
Ntp1057
Rp1058
(dp1059
g991
g69
sg19
g1055
sg21
L21474L
sg28
I4
sg22
Nsg23
L12L
sg24
g1056
sg18
L21466L
sbag5
(g987
g7
Ntp1060
Rp1061
(dp1062
g991
g130
sg19
S'\x10\x83\xc4\x1c[^_]\xc3'
p1063
sg21
L18461L
sg28
I0
sg22
Nsg23
L12L
sg24
(lp1064
g130
ag69
asg18
L18453L
sbag5
(g987
g7
Ntp1065
Rp1066
(dp1067
g991
g69
sg19
g1063
sg21
L18461L
sg28
I4
sg22
Nsg23
L12L
sg24
g1064
sg18
L18453L
sbag5
(g987
g7
Ntp1068
Rp1069
(dp1070
g991
g130
sg19
S'\x10\x83\xc4,[^_]\xc3'
p1071
sg21
L36024L
sg28
I0
sg22
Nsg23
L12L
sg24
(lp1072
g130
ag69
asg18
L36016L
sbag5
(g987
g7
Ntp1073
Rp1074
(dp1075
g991
g69
sg19
g1071
sg21
L36024L
sg28
I4
sg22
Nsg23
L12L
sg24
g1072
sg18
L36016L
sbag5
(g987
g7
Ntp1076
Rp1077
(dp1078
g991
g130
sg19
S'\x10[^_\xc3'
p1079
sg21
L18765L
sg28
I0
sg22
Nsg23
L8L
sg24
(lp1080
g130
asg18
L18761L
sbag5
(g987
g7
Ntp1081
Rp1082
(dp1083
g991
g130
sg19
S'\x10[^_\x0f\x94\xc0\xc3'
p1084
sg21
L48725L
sg28
I0
sg22
Nsg23
L8L
sg24
(lp1085
g130
ag27
asg18
L48718L
sbag5
(g987
g7
Ntp1086
Rp1087
(dp1088
g991
g49
sg19
S'\x12\x8b\x02\x85\xc0t\xf3\x83\xc4\x08[\xc3'
p1089
sg21
L49145L
sg28
I8
sg22
Nsg23
L16L
sg24
(lp1090
g49
ag14
asg18
L49134L
sbag5
(g987
g7
Ntp1091
Rp1092
(dp1093
g991
g130
sg19
S'\x11\x83\xc4\x0c[^_]\xc3'
p1094
sg21
L29430L
sg28
I0
sg22
Nsg23
L12L
sg24
(lp1095
g130
ag69
asg18
L29422L
sbag5
(g987
g7
Ntp1096
Rp1097
(dp1098
g991
g69
sg19
g1094
sg21
L29430L
sg28
I4
sg22
Nsg23
L12L
sg24
g1095
sg18
L29422L
sbag5
(g987
g7
Ntp1099
Rp1100
(dp1101
g991
g130
sg19
S'\x11\x83\xc4\x1c[^_]\xc3'
p1102
sg21
L80582L
sg28
I0
sg22
Nsg23
L12L
sg24
(lp1103
g130
ag69
asg18
L80574L
sbag5
(g987
g7
Ntp1104
Rp1105
(dp1106
g991
g69
sg19
g1102
sg21
L80582L
sg28
I4
sg22
Nsg23
L12L
sg24
g1103
sg18
L80574L
sbag5
(g987
g7
Ntp1107
Rp1108
(dp1109
g991
g130
sg19
S'\x11\x84\xd2\xb8\x01\x00\x00\x00t\x08[^_\xc3'
p1110
sg21
L29587L
sg28
I4
sg22
Nsg23
L12L
sg24
(lp1111
g130
ag106
asg18
L29574L
sbag5
(g987
g7
Ntp1112
Rp1113
(dp1114
g991
g106
sg19
g1110
sg21
L29587L
sg28
I0
sg22
Nsg23
L12L
sg24
g1111
sg18
L29574L
sbag5
(g987
g7
Ntp1115
Rp1116
(dp1117
g991
g49
sg19
S'\x11\x84\xd2u\xe7\x89\xf0[^\xc3'
p1118
sg21
L49525L
sg28
I0
sg22
Nsg23
L12L
sg24
(lp1119
g49
ag106
asg18
L49516L
sbag5
(g987
g7
Ntp1120
Rp1121
(dp1122
g991
g106
sg19
g1118
sg21
L49525L
sg28
I4
sg22
Nsg23
L12L
sg24
g1119
sg18
L49516L
sbag5
(g987
g7
Ntp1123
Rp1124
(dp1125
g991
g130
sg19
S'\x15\x83\xc4\x0c[^_]\xc3'
p1126
sg21
L41132L
sg28
I4
sg22
Nsg23
L16L
sg24
(lp1127
g130
ag27
ag69
ag106
asg18
L41124L
sbag5
(g987
g7
Ntp1128
Rp1129
(dp1130
g991
g69
sg19
g1126
sg21
L41132L
sg28
I8
sg22
Nsg23
L16L
sg24
g1127
sg18
L41124L
sbag5
(g987
g7
Ntp1131
Rp1132
(dp1133
g991
g106
sg19
g1126
sg21
L41132L
sg28
I0
sg22
Nsg23
L16L
sg24
g1127
sg18
L41124L
sbag5
(g987
g7
Ntp1134
Rp1135
(dp1136
g991
g130
sg19
S'\x13[\xb8\x01\x00\x00\x00^_\xc3'
p1137
sg21
L30309L
sg28
I4
sg22
Nsg23
L12L
sg24
(lp1138
g130
ag49
ag106
asg18
L30300L
sbag5
(g987
g7
Ntp1139
Rp1140
(dp1141
g991
g106
sg19
g1137
sg21
L30309L
sg28
I0
sg22
Nsg23
L12L
sg24
g1138
sg18
L30300L
sbag5
(g987
g7
Ntp1142
Rp1143
(dp1144
g991
g130
sg19
S'\x04\x00\x00[^_]\xc3'
p1145
sg21
L68032L
sg28
I0
sg22
Nsg23
L12L
sg24
(lp1146
g130
ag69
asg18
L68025L
sbag5
(g987
g7
Ntp1147
Rp1148
(dp1149
g991
g69
sg19
g1145
sg21
L68032L
sg28
I4
sg22
Nsg23
L12L
sg24
g1146
sg18
L68025L
sbag5
(g987
g7
Ntp1150
Rp1151
(dp1152
g991
g106
sg19
S'\x04[^\x8d\x04\xc2\xc3'
p1153
sg21
L47739L
sg28
I0
sg22
Nsg23
L8L
sg24
(lp1154
g27
ag106
asg18
L47733L
sbag5
(g987
g7
Ntp1155
Rp1156
(dp1157
g991
g130
sg19
S'\x04[^_\xc3'
p1158
sg21
L48715L
sg28
I4
sg22
Nsg23
L12L
sg24
(lp1159
g130
ag27
ag106
asg18
L48711L
sbag5
(g987
g7
Ntp1160
Rp1161
(dp1162
g991
g106
sg19
g1158
sg21
L48715L
sg28
I0
sg22
Nsg23
L12L
sg24
g1159
sg18
L48711L
sbag5
(g987
g7
Ntp1163
Rp1164
(dp1165
g991
g106
sg19
S'\x04[^\xc3'
p1166
sg21
L17923L
sg28
I0
sg22
Nsg23
L8L
sg24
(lp1167
g27
ag106
asg18
L17920L
sbag5
(g987
g7
Ntp1168
Rp1169
(dp1170
g991
g49
sg19
S'\x04\x85\xf6u\x1f\x83\xc4\x04[^\xc3'
p1171
sg21
L76346L
sg28
I4
sg22
Nsg23
L16L
sg24
(lp1172
g27
ag49
ag106
asg18
L76336L
sbag5
(g987
g7
Ntp1173
Rp1174
(dp1175
g991
g106
sg19
g1171
sg21
L76346L
sg28
I8
sg22
Nsg23
L16L
sg24
g1172
sg18
L76336L
sbag5
(g987
g7
Ntp1176
Rp1177
(dp1178
g991
g49
sg19
S'\x04\x85\xf6u\x06\x83\xc4\x04[^\xc3'
p1179
sg21
L76218L
sg28
I4
sg22
Nsg23
L16L
sg24
(lp1180
g27
ag17
ag49
ag106
asg18
L76208L
sbag5
(g987
g7
Ntp1181
Rp1182
(dp1183
g991
g106
sg19
g1179
sg21
L76218L
sg28
I8
sg22
Nsg23
L16L
sg24
g1180
sg18
L76208L
sbag5
(g987
g7
Ntp1184
Rp1185
(dp1186
g991
g130
sg19
S'\x02\x00\x00[^_\xc3'
p1187
sg21
L28335L
sg28
I0
sg22
Nsg23
L8L
sg24
(lp1188
g130
ag27
asg18
L28329L
sbag5
(g987
g7
Ntp1189
Rp1190
(dp1191
g991
g130
sg19
S'\x00t\x08[^_\xc3'
p1192
sg21
L29587L
sg28
I4
sg22
Nsg23
L12L
sg24
(lp1193
g130
ag106
asg18
L29581L
sbag5
(g987
g7
Ntp1194
Rp1195
(dp1196
g991
g106
sg19
g1192
sg21
L29587L
sg28
I0
sg22
Nsg23
L12L
sg24
g1193
sg18
L29581L
sbag5
(g987
g7
Ntp1197
Rp1198
(dp1199
g991
g130
sg19
S'\x00\x00\x00t\x08[^_\xc3'
p1200
sg21
L29587L
sg28
I4
sg22
Nsg23
L12L
sg24
(lp1201
g130
ag106
asg18
L29579L
sbag5
(g987
g7
Ntp1202
Rp1203
(dp1204
g991
g106
sg19
g1200
sg21
L29587L
sg28
I0
sg22
Nsg23
L12L
sg24
g1201
sg18
L29579L
sbag5
(g987
g7
Ntp1205
Rp1206
(dp1207
g991
g49
sg19
S'\x00\x00\x00\x00\x83\xc4\x04[^\xc3'
p1208
sg21
L18122L
sg28
I4
sg22
Nsg23
L16L
sg24
(lp1209
g49
ag106
asg18
L18113L
sbag5
(g987
g7
Ntp1210
Rp1211
(dp1212
g991
g106
sg19
g1208
sg21
L18122L
sg28
I8
sg22
Nsg23
L16L
sg24
g1209
sg18
L18113L
sbag5
(g987
g7
Ntp1213
Rp1214
(dp1215
g991
g130
sg19
S'\x00\x00\x00\x00[^_\xc3'
p1216
sg21
L50077L
sg28
I8
sg22
Nsg23
L16L
sg24
(lp1217
g130
ag49
ag106
asg18
L50070L
sbag5
(g987
g7
Ntp1218
Rp1219
(dp1220
g991
g49
sg19
g1216
sg21
L50077L
sg28
I0
sg22
Nsg23
L16L
sg24
g1217
sg18
L50070L
sbag5
(g987
g7
Ntp1221
Rp1222
(dp1223
g991
g106
sg19
g1216
sg21
L50077L
sg28
I4
sg22
Nsg23
L16L
sg24
g1217
sg18
L50070L
sbag5
(g987
g7
Ntp1224
Rp1225
(dp1226
g991
g49
sg19
S'\x00\x00\x00u\x13\x83\xc4\x18[\xc3'
p1227
sg21
L51365L
sg28
I24
sg22
Nsg23
L32L
sg24
(lp1228
g49
asg18
L51356L
sbag5
(g987
g7
Ntp1229
Rp1230
(dp1231
g991
g49
sg19
S'\x00\x00\x00u1\x83\xc4\x14[^\xc3'
p1232
sg21
L30814L
sg28
I20
sg22
Nsg23
L32L
sg24
(lp1233
g49
ag106
asg18
L30804L
sbag5
(g987
g7
Ntp1234
Rp1235
(dp1236
g991
g106
sg19
g1232
sg21
L30814L
sg28
I24
sg22
Nsg23
L32L
sg24
g1233
sg18
L30804L
sbag5
(g987
g7
Ntp1237
Rp1238
(dp1239
g991
g49
sg19
S'\x00\x00\x00u?\x83\xc4\x18[\xc3'
p1240
sg21
L17041L
sg28
I24
sg22
Nsg23
L32L
sg24
(lp1241
g49
asg18
L17032L
sbag5
(g987
g7
Ntp1242
Rp1243
(dp1244
g991
g49
sg19
S'\x00\x00\x00u\x06\x83\xc4\x14[^\xc3'
p1245
sg21
L47428L
sg28
I20
sg22
Nsg23
L32L
sg24
(lp1246
g49
ag106
asg18
L47418L
sbag5
(g987
g7
Ntp1247
Rp1248
(dp1249
g991
g106
sg19
g1245
sg21
L47428L
sg28
I24
sg22
Nsg23
L32L
sg24
g1246
sg18
L47418L
sbag5
(g987
g7
Ntp1250
Rp1251
(dp1252
g991
g130
sg19
S'\x00\x00\x00t\x05[^_\xc3'
p1253
sg21
L20222L
sg28
I4
sg22
Nsg23
L12L
sg24
(lp1254
g130
ag106
asg18
L20214L
sbag5
(g987
g7
Ntp1255
Rp1256
(dp1257
g991
g106
sg19
g1253
sg21
L20222L
sg28
I0
sg22
Nsg23
L12L
sg24
g1254
sg18
L20214L
sbag5
(g987
g7
Ntp1258
Rp1259
(dp1260
g991
g130
sg19
S'\x00\x00\x00[^_]\xc3'
p1261
sg21
L21662L
sg28
I0
sg22
Nsg23
L12L
sg24
(lp1262
g130
ag69
asg18
L21655L
sbag5
(g987
g7
Ntp1263
Rp1264
(dp1265
g991
g69
sg19
g1261
sg21
L21662L
sg28
I4
sg22
Nsg23
L12L
sg24
g1262
sg18
L21655L
sbag5
(g987
g7
Ntp1266
Rp1267
(dp1268
g991
g130
sg19
S'\x00\x00\x00[^_\xc3'
p1269
sg21
L50077L
sg28
I0
sg22
Nsg23
L8L
sg24
(lp1270
g130
asg18
L50071L
sbag5
(g987
g7
Ntp1271
Rp1272
(dp1273
g991
g49
sg19
S'\x00\x00\x00\x83\xc4\x08\x89\xd0[\xc3'
p1274
sg21
L81965L
sg28
I0
sg22
Nsg23
L8L
sg24
(lp1275
g49
asg18
L81956L
sbag5
(g987
g7
Ntp1276
Rp1277
(dp1278
g991
g130
sg19
S'\x00\x00\x00\x81\xc4\xa0\x02\x00\x00[^_\xc3'
p1279
sg21
L28335L
sg28
I0
sg22
Nsg23
L8L
sg24
(lp1280
g130
asg18
L28323L
sbag5
(g987
g7
Ntp1281
Rp1282
(dp1283
g991
g106
sg19
S'\x00\x00\x00t\t[^\xc3'
p1284
sg21
L20353L
sg28
I0
sg22
Nsg23
L8L
sg24
(lp1285
g106
asg18
L20346L
sbag5
(g987
g7
Ntp1286
Rp1287
(dp1288
g991
g69
sg19
S'\x00\x00\x00^_]\xc3'
p1289
sg21
L81304L
sg28
I0
sg22
Nsg23
L8L
sg24
(lp1290
g69
asg18
L81298L
sbag5
(g987
g7
Ntp1291
Rp1292
(dp1293
g991
g130
sg19
S'\x00\x00\x83\xc4\x10[^_\xc3'
p1294
sg21
L21170L
sg28
I24
sg22
Nsg23
L32L
sg24
(lp1295
g130
ag49
ag106
asg18
L21162L
sbag5
(g987
g7
Ntp1296
Rp1297
(dp1298
g991
g49
sg19
g1294
sg21
L21170L
sg28
I16
sg22
Nsg23
L32L
sg24
g1295
sg18
L21162L
sbag5
(g987
g7
Ntp1299
Rp1300
(dp1301
g991
g106
sg19
g1294
sg21
L21170L
sg28
I20
sg22
Nsg23
L32L
sg24
g1295
sg18
L21162L
sbag5
(g987
g7
Ntp1302
Rp1303
(dp1304
g991
g49
sg19
S'\x00\x00\x83\xc4\x18[\xc3'
p1305
sg21
L18836L
sg28
I24
sg22
Nsg23
L32L
sg24
(lp1306
g49
asg18
L18830L
sbag5
(g987
g7
Ntp1307
Rp1308
(dp1309
g991
g49
sg19
S'\x00\x00\x83\xc4\x04[^\xc3'
p1310
sg21
L18122L
sg28
I4
sg22
Nsg23
L16L
sg24
(lp1311
g49
ag106
asg18
L18115L
sbag5
(g987
g7
Ntp1312
Rp1313
(dp1314
g991
g106
sg19
g1310
sg21
L18122L
sg28
I8
sg22
Nsg23
L16L
sg24
g1311
sg18
L18115L
sbag5
(g987
g7
Ntp1315
Rp1316
(dp1317
g991
g49
sg19
g904
sg21
L81965L
sg28
I8
sg22
Nsg23
L16L
sg24
g905
sg18
L81957L
sbag5
(g987
g7
Ntp1318
Rp1319
(dp1320
g991
g49
sg19
S'\x00\x00\x83\xc4\x08[\xc3'
p1321
sg21
L7478L
sg28
I8
sg22
Nsg23
L16L
sg24
(lp1322
g49
asg18
L7472L
sbag5
(g987
g7
Ntp1323
Rp1324
(dp1325
g991
g130
sg19
S'\x00\x00\x89\xf0[^_\xc3'
p1326
sg21
L49069L
sg28
I8
sg22
Nsg23
L16L
sg24
(lp1327
g130
ag27
ag49
ag106
asg18
L49062L
sbag5
(g987
g7
Ntp1328
Rp1329
(dp1330
g991
g49
sg19
g1326
sg21
L49069L
sg28
I0
sg22
Nsg23
L16L
sg24
g1327
sg18
L49062L
sbag5
(g987
g7
Ntp1331
Rp1332
(dp1333
g991
g106
sg19
g1326
sg21
L49069L
sg28
I4
sg22
Nsg23
L16L
sg24
g1327
sg18
L49062L
sbag5
(g987
g7
Ntp1334
Rp1335
(dp1336
g991
g130
sg19
S'\x00\x00[^_]\xc3'
p1337
sg21
L17690L
sg28
I8
sg22
Nsg23
L20L
sg24
(lp1338
g130
ag69
ag49
ag106
asg18
L17684L
sbag5
(g987
g7
Ntp1339
Rp1340
(dp1341
g991
g69
sg19
g1337
sg21
L17690L
sg28
I12
sg22
Nsg23
L20L
sg24
g1338
sg18
L17684L
sbag5
(g987
g7
Ntp1342
Rp1343
(dp1344
g991
g49
sg19
g1337
sg21
L17690L
sg28
I0
sg22
Nsg23
L20L
sg24
g1338
sg18
L17684L
sbag5
(g987
g7
Ntp1345
Rp1346
(dp1347
g991
g106
sg19
g1337
sg21
L17690L
sg28
I4
sg22
Nsg23
L20L
sg24
g1338
sg18
L17684L
sbag5
(g987
g7
Ntp1348
Rp1349
(dp1350
g991
g130
sg19
S'\x00\x00[^_\xc3'
p1351
sg21
L28335L
sg28
I8
sg22
Nsg23
L16L
sg24
(lp1352
g130
ag49
ag106
asg18
L28330L
sbag5
(g987
g7
Ntp1353
Rp1354
(dp1355
g991
g49
sg19
g1351
sg21
L28335L
sg28
I0
sg22
Nsg23
L16L
sg24
g1352
sg18
L28330L
sbag5
(g987
g7
Ntp1356
Rp1357
(dp1358
g991
g106
sg19
g1351
sg21
L28335L
sg28
I4
sg22
Nsg23
L16L
sg24
g1352
sg18
L28330L
sbag5
(g987
g7
Ntp1359
Rp1360
(dp1361
g991
g49
sg19
S'\x00\x00[^\xc3'
p1362
sg21
L48199L
sg28
I0
sg22
Nsg23
L12L
sg24
(lp1363
g49
ag106
asg18
L48195L
sbag5
(g987
g7
Ntp1364
Rp1365
(dp1366
g991
g106
sg19
g1362
sg21
L48199L
sg28
I4
sg22
Nsg23
L12L
sg24
g1363
sg18
L48195L
sbag5
(g987
g7
Ntp1367
Rp1368
(dp1369
g991
g130
sg19
S'\x00\x00^_]\xc3'
p1370
sg21
L81304L
sg28
I4
sg22
Nsg23
L16L
sg24
(lp1371
g130
ag69
ag106
asg18
L81299L
sbag5
(g987
g7
Ntp1372
Rp1373
(dp1374
g991
g69
sg19
g1370
sg21
L81304L
sg28
I8
sg22
Nsg23
L16L
sg24
g1371
sg18
L81299L
sbag5
(g987
g7
Ntp1375
Rp1376
(dp1377
g991
g106
sg19
g1370
sg21
L81304L
sg28
I0
sg22
Nsg23
L16L
sg24
g1371
sg18
L81299L
sbag5
(g987
g7
Ntp1378
Rp1379
(dp1380
g991
g130
sg19
S'\x00\x00^_\xc3'
p1381
sg21
L30309L
sg28
I4
sg22
Nsg23
L12L
sg24
(lp1382
g130
ag106
asg18
L30305L
sbag5
(g987
g7
Ntp1383
Rp1384
(dp1385
g991
g106
sg19
g1381
sg21
L30309L
sg28
I0
sg22
Nsg23
L12L
sg24
g1382
sg18
L30305L
sbag5
(g987
g7
Ntp1386
Rp1387
(dp1388
g991
g49
sg19
S'\x00u\x13\x83\xc4\x18[\xc3'
p1389
sg21
L51365L
sg28
I24
sg22
Nsg23
L32L
sg24
(lp1390
g49
asg18
L51358L
sbag5
(g987
g7
Ntp1391
Rp1392
(dp1393
g991
g49
sg19
S'\x00u1\x83\xc4\x14[^\xc3'
p1394
sg21
L30814L
sg28
I20
sg22
Nsg23
L32L
sg24
(lp1395
g49
ag106
asg18
L30806L
sbag5
(g987
g7
Ntp1396
Rp1397
(dp1398
g991
g106
sg19
g1394
sg21
L30814L
sg28
I24
sg22
Nsg23
L32L
sg24
g1395
sg18
L30806L
sbag5
(g987
g7
Ntp1399
Rp1400
(dp1401
g991
g49
sg19
S'\x00u?\x83\xc4\x18[\xc3'
p1402
sg21
L17041L
sg28
I24
sg22
Nsg23
L32L
sg24
(lp1403
g49
asg18
L17034L
sbag5
(g987
g7
Ntp1404
Rp1405
(dp1406
g991
g130
sg19
S'\x00\x8de\xf4[^_]\xc3'
p1407
sg21
L31756L
sg28
I0
sg22
Nsg23
L12L
sg24
(lp1408
g130
ag69
asg18
L31748L
sbag5
(g987
g7
Ntp1409
Rp1410
(dp1411
g991
g69
sg19
g1407
sg21
L31756L
sg28
I4
sg22
Nsg23
L12L
sg24
g1408
sg18
L31748L
sbag5
(g987
g7
Ntp1412
Rp1413
(dp1414
g991
g130
sg19
S'\x00u\n[1\xc0^_\xc3'
p1415
sg21
L47491L
sg28
I8
sg22
Nsg23
L16L
sg24
(lp1416
g130
ag27
ag49
ag106
asg18
L47483L
sbag5
(g987
g7
Ntp1417
Rp1418
(dp1419
g991
g49
sg19
g1415
sg21
L47491L
sg28
I0
sg22
Nsg23
L16L
sg24
g1416
sg18
L47483L
sbag5
(g987
g7
Ntp1420
Rp1421
(dp1422
g991
g106
sg19
g1415
sg21
L47491L
sg28
I4
sg22
Nsg23
L16L
sg24
g1416
sg18
L47483L
sbag5
(g987
g7
Ntp1423
Rp1424
(dp1425
g991
g49
sg19
S'\x00u\x06\x83\xc4\x14[^\xc3'
p1426
sg21
L47428L
sg28
I20
sg22
Nsg23
L32L
sg24
(lp1427
g49
ag106
asg18
L47420L
sbag5
(g987
g7
Ntp1428
Rp1429
(dp1430
g991
g106
sg19
g1426
sg21
L47428L
sg28
I24
sg22
Nsg23
L32L
sg24
g1427
sg18
L47420L
sbag5
(g987
g7
Ntp1431
Rp1432
(dp1433
g991
g130
sg19
S'\x00t\x05[^_\xc3'
p1434
sg21
L20222L
sg28
I4
sg22
Nsg23
L12L
sg24
(lp1435
g130
ag106
asg18
L20216L
sbag5
(g987
g7
Ntp1436
Rp1437
(dp1438
g991
g106
sg19
g1434
sg21
L20222L
sg28
I0
sg22
Nsg23
L12L
sg24
g1435
sg18
L20216L
sbag5
(g987
g7
Ntp1439
Rp1440
(dp1441
g991
g130
sg19
S'\x00\x83\xc4\x0c[^_]\xc3'
p1442
sg21
L19856L
sg28
I0
sg22
Nsg23
L12L
sg24
(lp1443
g130
ag69
asg18
L19848L
sbag5
(g987
g7
Ntp1444
Rp1445
(dp1446
g991
g69
sg19
g1442
sg21
L19856L
sg28
I4
sg22
Nsg23
L12L
sg24
g1443
sg18
L19848L
sbag5
(g987
g7
Ntp1447
Rp1448
(dp1449
g991
g130
sg19
S'\x00\x83\xc4\x10[^_\xc3'
p1450
sg21
L21170L
sg28
I0
sg22
Nsg23
L8L
sg24
(lp1451
g130
asg18
L21163L
sbag5
(g987
g7
Ntp1452
Rp1453
(dp1454
g991
g130
sg19
S'\x00\x83\xc4\x1c[^_]\xc3'
p1455
sg21
L19070L
sg28
I0
sg22
Nsg23
L12L
sg24
(lp1456
g130
ag69
asg18
L19062L
sbag5
(g987
g7
Ntp1457
Rp1458
(dp1459
g991
g69
sg19
g1455
sg21
L19070L
sg28
I4
sg22
Nsg23
L12L
sg24
g1456
sg18
L19062L
sbag5
(g987
g7
Ntp1460
Rp1461
(dp1462
g991
g130
sg19
S'\x00\x83\xc4,[^_]\xc3'
p1463
sg21
L55621L
sg28
I0
sg22
Nsg23
L12L
sg24
(lp1464
g130
ag69
asg18
L55613L
sbag5
(g987
g7
Ntp1465
Rp1466
(dp1467
g991
g69
sg19
g1463
sg21
L55621L
sg28
I4
sg22
Nsg23
L12L
sg24
g1464
sg18
L55613L
sbag5
(g987
g7
Ntp1468
Rp1469
(dp1470
g991
g130
sg19
S'\x00\x83\xc4<[^_]\xc3'
p1471
sg21
L46588L
sg28
I0
sg22
Nsg23
L12L
sg24
(lp1472
g130
ag69
asg18
L46580L
sbag5
(g987
g7
Ntp1473
Rp1474
(dp1475
g991
g69
sg19
g1471
sg21
L46588L
sg28
I4
sg22
Nsg23
L12L
sg24
g1472
sg18
L46580L
sbag5
(g987
g7
Ntp1476
Rp1477
(dp1478
g991
g130
sg19
S'\x00\x83\xc4L[^_]\xc3'
p1479
sg21
L23234L
sg28
I0
sg22
Nsg23
L12L
sg24
(lp1480
g130
ag69
asg18
L23226L
sbag5
(g987
g7
Ntp1481
Rp1482
(dp1483
g991
g69
sg19
g1479
sg21
L23234L
sg28
I4
sg22
Nsg23
L12L
sg24
g1480
sg18
L23226L
sbag5
(g987
g7
Ntp1484
Rp1485
(dp1486
g991
g130
sg19
S'\x00\x83\xc4\\[^_]\xc3'
p1487
sg21
L83196L
sg28
I0
sg22
Nsg23
L12L
sg24
(lp1488
g130
ag69
asg18
L83188L
sbag5
(g987
g7
Ntp1489
Rp1490
(dp1491
g991
g69
sg19
g1487
sg21
L83196L
sg28
I4
sg22
Nsg23
L12L
sg24
g1488
sg18
L83188L
sbag5
(g987
g7
Ntp1492
Rp1493
(dp1494
g991
g130
sg19
S'\x00\x83\xc4|[^_]\xc3'
p1495
sg21
L61716L
sg28
I0
sg22
Nsg23
L12L
sg24
(lp1496
g130
ag69
asg18
L61708L
sbag5
(g987
g7
Ntp1497
Rp1498
(dp1499
g991
g69
sg19
g1495
sg21
L61716L
sg28
I4
sg22
Nsg23
L12L
sg24
g1496
sg18
L61708L
sbag5
(g987
g7
Ntp1500
Rp1501
(dp1502
g991
g130
sg19
S'\x00[^_]\xc3'
p1503
sg21
L17690L
sg28
I0
sg22
Nsg23
L12L
sg24
(lp1504
g130
ag69
asg18
L17685L
sbag5
(g987
g7
Ntp1505
Rp1506
(dp1507
g991
g69
sg19
g1503
sg21
L17690L
sg28
I4
sg22
Nsg23
L12L
sg24
g1504
sg18
L17685L
sbag5
(g987
g7
Ntp1508
Rp1509
(dp1510
g991
g130
sg19
S'\x00[^_\xc3'
p1511
sg21
L28335L
sg28
I0
sg22
Nsg23
L8L
sg24
(lp1512
g130
asg18
L28331L
sbag5
(g987
g7
Ntp1513
Rp1514
(dp1515
g991
g49
sg19
S'\x00\x83\xc4\x08\x89\xd0[\xc3'
p1516
sg21
L81965L
sg28
I0
sg22
Nsg23
L8L
sg24
(lp1517
g49
asg18
L81958L
sbag5
(g987
g7
Ntp1518
Rp1519
(dp1520
g991
g130
sg19
S'\x00[\xf3\xa6^\x0f\x95\xc0_\xc3'
p1521
sg21
L16930L
sg28
I4
sg22
Nsg23
L12L
sg24
(lp1522
g130
ag27
ag106
asg18
L16921L
sbag5
(g987
g7
Ntp1523
Rp1524
(dp1525
g991
g106
sg19
g1521
sg21
L16930L
sg28
I0
sg22
Nsg23
L12L
sg24
g1522
sg18
L16921L
sbag5
(g987
g7
Ntp1526
Rp1527
(dp1528
g991
g130
sg19
S'\x00\x81\xc4\xa0\x02\x00\x00[^_\xc3'
p1529
sg21
L28335L
sg28
I0
sg22
Nsg23
L8L
sg24
(lp1530
g130
asg18
L28325L
sbag5
(g987
g7
Ntp1531
Rp1532
(dp1533
g991
g130
sg19
S'\x00\x81\xc4\xac\x04\x00\x00[^_]\xc3'
p1534
sg21
L68032L
sg28
I0
sg22
Nsg23
L12L
sg24
(lp1535
g130
ag69
asg18
L68021L
sbag5
(g987
g7
Ntp1536
Rp1537
(dp1538
g991
g69
sg19
g1534
sg21
L68032L
sg28
I4
sg22
Nsg23
L12L
sg24
g1535
sg18
L68021L
sbag5
(g987
g7
Ntp1539
Rp1540
(dp1541
g991
g106
sg19
S'\x00\x8931\xc0[^\xc3'
p1542
sg21
L48190L
sg28
I0
sg22
Nsg23
L8L
sg24
(lp1543
g106
asg18
L48183L
sbag5
(g987
g7
Ntp1544
Rp1545
(dp1546
g991
g130
sg19
S'\x00\x89\xd7\x89\xf8[^_\xc3'
p1547
sg21
L44887L
sg28
I4
sg22
Nsg23
L12L
sg24
(lp1548
g130
ag106
asg18
L44879L
sbag5
(g987
g7
Ntp1549
Rp1550
(dp1551
g991
g106
sg19
g1547
sg21
L44887L
sg28
I0
sg22
Nsg23
L12L
sg24
g1548
sg18
L44879L
sbag5
(g987
g7
Ntp1552
Rp1553
(dp1554
g991
g69
sg19
S'\x00\x89\xd8[^_]\xc3'
p1555
sg21
L20762L
sg28
I0
sg22
Nsg23
L8L
sg24
(lp1556
g69
asg18
L20755L
sbag5
(g987
g7
Ntp1557
Rp1558
(dp1559
g991
g130
sg19
S'\x00\x81\xc4\x9c\x00\x00\x00[^_]\xc3'
p1560
sg21
L83822L
sg28
I0
sg22
Nsg23
L12L
sg24
(lp1561
g130
ag69
asg18
L83811L
sbag5
(g987
g7
Ntp1562
Rp1563
(dp1564
g991
g69
sg19
g1560
sg21
L83822L
sg28
I4
sg22
Nsg23
L12L
sg24
g1561
sg18
L83811L
sbag5
(g987
g7
Ntp1565
Rp1566
(dp1567
g991
g130
sg19
S'\x00\x81\xc4\xac\x00\x00\x00[^_]\xc3'
p1568
sg21
L52980L
sg28
I0
sg22
Nsg23
L12L
sg24
(lp1569
g130
ag69
asg18
L52969L
sbag5
(g987
g7
Ntp1570
Rp1571
(dp1572
g991
g69
sg19
g1568
sg21
L52980L
sg28
I4
sg22
Nsg23
L12L
sg24
g1569
sg18
L52969L
sbag5
(g987
g7
Ntp1573
Rp1574
(dp1575
g991
g130
sg19
S'\x00\x81\xc4\xbc\x00\x00\x00[^_]\xc3'
p1576
sg21
L21662L
sg28
I0
sg22
Nsg23
L12L
sg24
(lp1577
g130
ag69
asg18
L21651L
sbag5
(g987
g7
Ntp1578
Rp1579
(dp1580
g991
g69
sg19
g1576
sg21
L21662L
sg28
I4
sg22
Nsg23
L12L
sg24
g1577
sg18
L21651L
sbag5
(g987
g7
Ntp1581
Rp1582
(dp1583
g991
g130
sg19
S'\x00\x81\xc4\xec\x00\x00\x00[^_]\xc3'
p1584
sg21
L86963L
sg28
I0
sg22
Nsg23
L12L
sg24
(lp1585
g130
ag69
asg18
L86952L
sbag5
(g987
g7
Ntp1586
Rp1587
(dp1588
g991
g69
sg19
g1584
sg21
L86963L
sg28
I4
sg22
Nsg23
L12L
sg24
g1585
sg18
L86952L
sbag5
(g987
g7
Ntp1589
Rp1590
(dp1591
g991
g106
sg19
S'\x00t\t[^\xc3'
p1592
sg21
L20353L
sg28
I0
sg22
Nsg23
L8L
sg24
(lp1593
g106
asg18
L20348L
sbag5
(g987
g7
Ntp1594
Rp1595
(dp1596
g991
g130
sg19
S'\x00\x89\xf0\x0f\x85\xf2\x00\x00\x00\x81\xc4\xa0\x02\x00\x00[^_\xc3'
p1597
sg21
L28335L
sg28
I0
sg22
Nsg23
L8L
sg24
(lp1598
g130
asg18
L28317L
sbag5
(g987
g7
Ntp1599
Rp1600
(dp1601
g991
g49
sg19
S'\x00\x84\xff\xff\x83\xc4\x10\x83\xc4\x04[^\xc3'
p1602
sg21
L39336L
sg28
I4
sg22
Nsg23
L16L
sg24
(lp1603
g49
ag106
asg18
L39324L
sbag5
(g987
g7
Ntp1604
Rp1605
(dp1606
g991
g106
sg19
g1602
sg21
L39336L
sg28
I8
sg22
Nsg23
L16L
sg24
g1603
sg18
L39324L
sbag5
(g987
g7
Ntp1607
Rp1608
(dp1609
g991
g69
sg19
S'\x00^_]\xc3'
p1610
sg21
L81304L
sg28
I0
sg22
Nsg23
L8L
sg24
(lp1611
g69
asg18
L81300L
sbag5
(g987
g7
Ntp1612
Rp1613
(dp1614
g991
g106
sg19
S'&\x00\x8931\xc0[^\xc3'
p1615
sg21
L48190L
sg28
I0
sg22
Nsg23
L8L
sg24
(lp1616
g106
asg18
L48182L
sbag5
(g987
g7
Ntp1617
Rp1618
(dp1619
g991
g49
sg19
S'\x01\x00\x00\x00\x83\xc4\x04[^\xc3'
p1620
sg21
L45258L
sg28
I4
sg22
Nsg23
L16L
sg24
(lp1621
g49
ag106
asg18
L45249L
sbag5
(g987
g7
Ntp1622
Rp1623
(dp1624
g991
g106
sg19
g1620
sg21
L45258L
sg28
I8
sg22
Nsg23
L16L
sg24
g1621
sg18
L45249L
sbag5
(g987
g7
Ntp1625
Rp1626
(dp1627
g991
g49
sg19
g909
sg21
L81965L
sg28
I8
sg22
Nsg23
L16L
sg24
g910
sg18
L81955L
sbag5
(g987
g7
Ntp1628
Rp1629
(dp1630
g991
g49
sg19
S'\x01\x00\x00\x00[^\xc3'
p1631
sg21
L48199L
sg28
I0
sg22
Nsg23
L12L
sg24
(lp1632
g49
ag106
asg18
L48193L
sbag5
(g987
g7
Ntp1633
Rp1634
(dp1635
g991
g106
sg19
g1631
sg21
L48199L
sg28
I4
sg22
Nsg23
L12L
sg24
g1632
sg18
L48193L
sbag5
(g987
g7
Ntp1636
Rp1637
(dp1638
g991
g130
sg19
S'\x01\x00\x00\x00^_]\xc3'
p1639
sg21
L81304L
sg28
I4
sg22
Nsg23
L16L
sg24
(lp1640
g130
ag69
ag106
asg18
L81297L
sbag5
(g987
g7
Ntp1641
Rp1642
(dp1643
g991
g69
sg19
g1639
sg21
L81304L
sg28
I8
sg22
Nsg23
L16L
sg24
g1640
sg18
L81297L
sbag5
(g987
g7
Ntp1644
Rp1645
(dp1646
g991
g106
sg19
g1639
sg21
L81304L
sg28
I0
sg22
Nsg23
L16L
sg24
g1640
sg18
L81297L
sbag5
(g987
g7
Ntp1647
Rp1648
(dp1649
g991
g130
sg19
S'\x01\x00\x00\x00^_\xc3'
p1650
sg21
L30309L
sg28
I4
sg22
Nsg23
L12L
sg24
(lp1651
g130
ag106
asg18
L30303L
sbag5
(g987
g7
Ntp1652
Rp1653
(dp1654
g991
g106
sg19
g1650
sg21
L30309L
sg28
I0
sg22
Nsg23
L12L
sg24
g1651
sg18
L30303L
sbag5
(g987
g7
Ntp1655
Rp1656
(dp1657
g991
g49
sg19
g46
sg21
L16073L
sg28
I24
sg22
Nsg23
L32L
sg24
g47
sg18
L16067L
sbag5
(g987
g7
Ntp1658
Rp1659
(dp1660
g991
g49
sg19
g85
sg21
L45721L
sg28
I0
sg22
Nsg23
L8L
sg24
g86
sg18
L45708L
sbag5
(g987
g7
Ntp1661
Rp1662
(dp1663
g991
g49
sg19
g90
sg21
L45770L
sg28
I0
sg22
Nsg23
L8L
sg24
g91
sg18
L45757L
sbag5
(g987
g7
Ntp1664
Rp1665
(dp1666
g991
g49
sg19
S'\x83\xc0t\x88B\t[\xc3'
p1667
sg21
L45721L
sg28
I0
sg22
Nsg23
L8L
sg24
(lp1668
g27
ag49
asg18
L45714L
sbag5
(g987
g7
Ntp1669
Rp1670
(dp1671
g991
g49
sg19
S'\x83\xc0x\x88B\t[\xc3'
p1672
sg21
L45770L
sg28
I0
sg22
Nsg23
L8L
sg24
(lp1673
g27
ag49
asg18
L45763L
sbag5
(g987
g7
Ntp1674
Rp1675
(dp1676
g991
g130
sg19
g235
sg21
L37386L
sg28
I0
sg22
Nsg23
L12L
sg24
g236
sg18
L37379L
sbag5
(g987
g7
Ntp1677
Rp1678
(dp1679
g991
g69
sg19
g235
sg21
L37386L
sg28
I4
sg22
Nsg23
L12L
sg24
g236
sg18
L37379L
sbag5
(g987
g7
Ntp1680
Rp1681
(dp1682
g991
g130
sg19
g265
sg21
L49077L
sg28
I0
sg22
Nsg23
L8L
sg24
g266
sg18
L49073L
sbag5
(g987
g7
Ntp1683
Rp1684
(dp1685
g991
g49
sg19
S'\x83\xc4\x10\x83\xc4\x04[^\xc3'
p1686
sg21
L17923L
sg28
I20
sg22
Nsg23
L32L
sg24
(lp1687
g49
ag106
asg18
L17915L
sbag5
(g987
g7
Ntp1688
Rp1689
(dp1690
g991
g106
sg19
g1686
sg21
L17923L
sg28
I24
sg22
Nsg23
L32L
sg24
g1687
sg18
L17915L
sbag5
(g987
g7
Ntp1691
Rp1692
(dp1693
g991
g130
sg19
S'\x83\xc4\x10[^_\xc3'
p1694
sg21
L18765L
sg28
I24
sg22
Nsg23
L32L
sg24
(lp1695
g130
ag49
ag106
asg18
L18759L
sbag5
(g987
g7
Ntp1696
Rp1697
(dp1698
g991
g49
sg19
g1694
sg21
L18765L
sg28
I16
sg22
Nsg23
L32L
sg24
g1695
sg18
L18759L
sbag5
(g987
g7
Ntp1699
Rp1700
(dp1701
g991
g106
sg19
g1694
sg21
L18765L
sg28
I20
sg22
Nsg23
L32L
sg24
g1695
sg18
L18759L
sbag5
(g987
g7
Ntp1702
Rp1703
(dp1704
g991
g49
sg19
S'\x83\xc4\x101\xc0\x83\xc4\x04[^\xc3'
p1705
sg21
L76371L
sg28
I20
sg22
Nsg23
L32L
sg24
(lp1706
g27
ag49
ag106
asg18
L76361L
sbag5
(g987
g7
Ntp1707
Rp1708
(dp1709
g991
g106
sg19
g1705
sg21
L76371L
sg28
I24
sg22
Nsg23
L32L
sg24
g1706
sg18
L76361L
sbag5
(g987
g7
Ntp1710
Rp1711
(dp1712
g991
g130
sg19
S'\x83\xc4\x14[^_]\xc3'
p1713
sg21
L85473L
sg28
I28
sg22
Nsg23
L40L
sg24
(lp1714
g130
ag69
ag49
ag106
asg18
L85466L
sbag5
(g987
g7
Ntp1715
Rp1716
(dp1717
g991
g49
sg19
g1713
sg21
L85473L
sg28
I20
sg22
Nsg23
L40L
sg24
g1714
sg18
L85466L
sbag5
(g987
g7
Ntp1718
Rp1719
(dp1720
g991
g106
sg19
g1713
sg21
L85473L
sg28
I24
sg22
Nsg23
L40L
sg24
g1714
sg18
L85466L
sbag5
(g987
g7
Ntp1721
Rp1722
(dp1723
g991
g49
sg19
S'\x83\xc4\x14[^\xc3'
p1724
sg21
L21031L
sg28
I20
sg22
Nsg23
L32L
sg24
(lp1725
g49
ag106
asg18
L21026L
sbag5
(g987
g7
Ntp1726
Rp1727
(dp1728
g991
g106
sg19
g1724
sg21
L21031L
sg28
I24
sg22
Nsg23
L32L
sg24
g1725
sg18
L21026L
sbag5
(g987
g7
Ntp1729
Rp1730
(dp1731
g991
g49
sg19
S'\x83\xc4\x18[^_]\xc3'
p1732
sg21
L16360L
sg28
I24
sg22
Nsg23
L44L
sg24
(lp1733
g130
ag69
ag49
ag106
asg18
L16353L
sbag5
(g987
g7
Ntp1734
Rp1735
(dp1736
g991
g106
sg19
g1732
sg21
L16360L
sg28
I28
sg22
Nsg23
L44L
sg24
g1733
sg18
L16353L
sbag5
(g987
g7
Ntp1737
Rp1738
(dp1739
g991
g49
sg19
S'\x83\xc4\x18[\xc3'
p1740
sg21
L16073L
sg28
I24
sg22
Nsg23
L32L
sg24
(lp1741
g49
asg18
L16069L
sbag5
(g987
g7
Ntp1742
Rp1743
(dp1744
g991
g49
sg19
S'\x83\xc4\x1c[^_]\xc3'
p1745
sg21
L17853L
sg28
I28
sg22
Nsg23
L48L
sg24
(lp1746
g130
ag69
ag49
ag106
asg18
L17846L
sbag5
(g987
g7
Ntp1747
Rp1748
(dp1749
g991
g130
sg19
S'\x83\xc4\x0c[^_]\xc3'
p1750
sg21
L19856L
sg28
I20
sg22
Nsg23
L32L
sg24
(lp1751
g130
ag69
ag49
ag106
asg18
L19849L
sbag5
(g987
g7
Ntp1752
Rp1753
(dp1754
g991
g69
sg19
g1750
sg21
L19856L
sg28
I24
sg22
Nsg23
L32L
sg24
g1751
sg18
L19849L
sbag5
(g987
g7
Ntp1755
Rp1756
(dp1757
g991
g49
sg19
g1750
sg21
L19856L
sg28
I12
sg22
Nsg23
L32L
sg24
g1751
sg18
L19849L
sbag5
(g987
g7
Ntp1758
Rp1759
(dp1760
g991
g106
sg19
g1750
sg21
L19856L
sg28
I16
sg22
Nsg23
L32L
sg24
g1751
sg18
L19849L
sbag5
(g987
g7
Ntp1761
Rp1762
(dp1763
g991
g49
sg19
g914
sg21
L45168L
sg28
I4
sg22
Nsg23
L16L
sg24
g915
sg18
L45161L
sbag5
(g987
g7
Ntp1764
Rp1765
(dp1766
g991
g106
sg19
g914
sg21
L45168L
sg28
I8
sg22
Nsg23
L16L
sg24
g915
sg18
L45161L
sbag5
(g987
g7
Ntp1767
Rp1768
(dp1769
g991
g49
sg19
S'\x83\xc4\x04[^\x8d\x04\xc2\xc3'
p1770
sg21
L47739L
sg28
I4
sg22
Nsg23
L16L
sg24
(lp1771
g27
ag49
ag106
asg18
L47731L
sbag5
(g987
g7
Ntp1772
Rp1773
(dp1774
g991
g106
sg19
g1770
sg21
L47739L
sg28
I8
sg22
Nsg23
L16L
sg24
g1771
sg18
L47731L
sbag5
(g987
g7
Ntp1775
Rp1776
(dp1777
g991
g49
sg19
S'\x83\xc4\x04[^\xc3'
p1778
sg21
L17923L
sg28
I4
sg22
Nsg23
L16L
sg24
(lp1779
g49
ag106
asg18
L17918L
sbag5
(g987
g7
Ntp1780
Rp1781
(dp1782
g991
g106
sg19
g1778
sg21
L17923L
sg28
I8
sg22
Nsg23
L16L
sg24
g1779
sg18
L17918L
sbag5
(g987
g7
Ntp1783
Rp1784
(dp1785
g991
g49
sg19
g919
sg21
L81965L
sg28
I8
sg22
Nsg23
L16L
sg24
g920
sg18
L81959L
sbag5
(g987
g7
Ntp1786
Rp1787
(dp1788
g991
g49
sg19
S'\x83\xc4\x08[\xc3'
p1789
sg21
L7478L
sg28
I8
sg22
Nsg23
L16L
sg24
(lp1790
g49
asg18
L7474L
sbag5
(g987
g7
Ntp1791
Rp1792
(dp1793
g991
g49
sg19
S'\x83\xc4\x081\xc0[\xc3'
p1794
sg21
L49152L
sg28
I8
sg22
Nsg23
L16L
sg24
(lp1795
g27
ag49
asg18
L49146L
sbag5
(g987
g7
Ntp1796
Rp1797
(dp1798
g991
g130
sg19
S'"\x83\xc4\x0c[^_]\xc3'
p1799
sg21
L81809L
sg28
I0
sg22
Nsg23
L12L
sg24
(lp1800
g130
ag27
ag69
asg18
L81801L
sbag5
(g987
g7
Ntp1801
Rp1802
(dp1803
g991
g69
sg19
g1799
sg21
L81809L
sg28
I4
sg22
Nsg23
L12L
sg24
g1800
sg18
L81801L
sbag5
(g987
g7
Ntp1804
Rp1805
(dp1806
g991
g130
sg19
S' \x00\x00[^_]\xc3'
p1807
sg21
L24190L
sg28
I0
sg22
Nsg23
L12L
sg24
(lp1808
g130
ag69
asg18
L24183L
sbag5
(g987
g7
Ntp1809
Rp1810
(dp1811
g991
g69
sg19
g1807
sg21
L24190L
sg28
I4
sg22
Nsg23
L12L
sg24
g1808
sg18
L24183L
sbag5
(g987
g7
Ntp1812
Rp1813
(dp1814
g991
g130
sg19
S' \x83\xc4,[^_]\xc3'
p1815
sg21
L75263L
sg28
I0
sg22
Nsg23
L12L
sg24
(lp1816
g130
ag69
asg18
L75255L
sbag5
(g987
g7
Ntp1817
Rp1818
(dp1819
g991
g69
sg19
g1815
sg21
L75263L
sg28
I4
sg22
Nsg23
L12L
sg24
g1816
sg18
L75255L
sbag5
(g987
g7
Ntp1820
Rp1821
(dp1822
g991
g130
sg19
S' [^_\xc3'
p1823
sg21
L44001L
sg28
I0
sg22
Nsg23
L8L
sg24
(lp1824
g130
asg18
L43997L
sbag5
(g987
g7
Ntp1825
Rp1826
(dp1827
g991
g49
sg19
S'\x83\xe0\xb5\x83\xc0x\x88B\t[\xc3'
p1828
sg21
L45770L
sg28
I0
sg22
Nsg23
L8L
sg24
(lp1829
g27
ag49
asg18
L45760L
sbag5
(g987
g7
Ntp1830
Rp1831
(dp1832
g991
g49
sg19
S'\x83\xe0\xe0\x83\xc0t\x88B\t[\xc3'
p1833
sg21
L45721L
sg28
I0
sg22
Nsg23
L8L
sg24
(lp1834
g27
ag49
asg18
L45711L
sbag5
(g987
g7
Ntp1835
Rp1836
(dp1837
g991
g130
sg19
S'c\xff\xff\x83\xc4<[^_]\xc3'
p1838
sg21
L48977L
sg28
I0
sg22
Nsg23
L12L
sg24
(lp1839
g130
ag69
asg18
L48967L
sbag5
(g987
g7
Ntp1840
Rp1841
(dp1842
g991
g69
sg19
g1838
sg21
L48977L
sg28
I4
sg22
Nsg23
L12L
sg24
g1839
sg18
L48967L
sbag5
(g987
g7
Ntp1843
Rp1844
(dp1845
g991
g130
sg19
S'b\x00\x00\x83\xc4\x10[^_\xc3'
p1846
sg21
L21170L
sg28
I0
sg22
Nsg23
L8L
sg24
(lp1847
g130
asg18
L21161L
sbag5
(g987
g7
Ntp1848
Rp1849
(dp1850
g991
g49
sg19
g112
sg21
L45721L
sg28
I0
sg22
Nsg23
L8L
sg24
g113
sg18
L45707L
sbag5
(g987
g7
Ntp1851
Rp1852
(dp1853
g991
g49
sg19
g117
sg21
L45770L
sg28
I0
sg22
Nsg23
L8L
sg24
g118
sg18
L45756L
sbag5
(g987
g7
Ntp1854
Rp1855
(dp1856
g991
g130
sg19
S'\xf8[^_]\xc3'
p1857
sg21
L43529L
sg28
I8
sg22
Nsg23
L20L
sg24
(lp1858
g130
ag69
ag49
ag106
asg18
L43524L
sbag5
(g987
g7
Ntp1859
Rp1860
(dp1861
g991
g69
sg19
g1857
sg21
L43529L
sg28
I12
sg22
Nsg23
L20L
sg24
g1858
sg18
L43524L
sbag5
(g987
g7
Ntp1862
Rp1863
(dp1864
g991
g49
sg19
g1857
sg21
L43529L
sg28
I0
sg22
Nsg23
L20L
sg24
g1858
sg18
L43524L
sbag5
(g987
g7
Ntp1865
Rp1866
(dp1867
g991
g106
sg19
g1857
sg21
L43529L
sg28
I4
sg22
Nsg23
L20L
sg24
g1858
sg18
L43524L
sbag5
(g987
g7
Ntp1868
Rp1869
(dp1870
g991
g130
sg19
S'\xf8[^_\xc3'
p1871
sg21
L44869L
sg28
I8
sg22
Nsg23
L16L
sg24
(lp1872
g130
ag49
ag106
asg18
L44865L
sbag5
(g987
g7
Ntp1873
Rp1874
(dp1875
g991
g49
sg19
g1871
sg21
L44869L
sg28
I0
sg22
Nsg23
L16L
sg24
g1872
sg18
L44865L
sbag5
(g987
g7
Ntp1876
Rp1877
(dp1878
g991
g106
sg19
g1871
sg21
L44869L
sg28
I4
sg22
Nsg23
L16L
sg24
g1872
sg18
L44865L
sbag5
(g987
g7
Ntp1879
Rp1880
(dp1881
g991
g130
sg19
S'\xf8^_]\xc3'
p1882
sg21
L43574L
sg28
I4
sg22
Nsg23
L16L
sg24
(lp1883
g130
ag69
ag106
asg18
L43570L
sbag5
(g987
g7
Ntp1884
Rp1885
(dp1886
g991
g69
sg19
g1882
sg21
L43574L
sg28
I8
sg22
Nsg23
L16L
sg24
g1883
sg18
L43570L
sbag5
(g987
g7
Ntp1887
Rp1888
(dp1889
g991
g106
sg19
g1882
sg21
L43574L
sg28
I0
sg22
Nsg23
L16L
sg24
g1883
sg18
L43570L
sbag5
(g987
g7
Ntp1890
Rp1891
(dp1892
g991
g130
sg19
S'\x0fE\xc2^_\xc3'
p1893
sg21
L59918L
sg28
I4
sg22
Nsg23
L12L
sg24
(lp1894
g130
ag106
asg18
L59913L
sbag5
(g987
g7
Ntp1895
Rp1896
(dp1897
g991
g106
sg19
g1893
sg21
L59918L
sg28
I0
sg22
Nsg23
L12L
sg24
g1894
sg18
L59913L
sbag5
(g987
g7
Ntp1898
Rp1899
(dp1900
g991
g130
sg19
S'<[^_]\xc3'
p1901
sg21
L36136L
sg28
I4
sg22
Nsg23
L16L
sg24
(lp1902
g130
ag69
ag106
asg18
L36131L
sbag5
(g987
g7
Ntp1903
Rp1904
(dp1905
g991
g69
sg19
g1901
sg21
L36136L
sg28
I8
sg22
Nsg23
L16L
sg24
g1902
sg18
L36131L
sbag5
(g987
g7
Ntp1906
Rp1907
(dp1908
g991
g106
sg19
g1901
sg21
L36136L
sg28
I0
sg22
Nsg23
L16L
sg24
g1902
sg18
L36131L
sbag5
(g987
g7
Ntp1909
Rp1910
(dp1911
g991
g130
sg19
S':\x83\xc4\x18[^_]\xc3'
p1912
sg21
L16360L
sg28
I0
sg22
Nsg23
L12L
sg24
(lp1913
g130
ag69
asg18
L16352L
sbag5
(g987
g7
Ntp1914
Rp1915
(dp1916
g991
g69
sg19
g1912
sg21
L16360L
sg28
I4
sg22
Nsg23
L12L
sg24
g1913
sg18
L16352L
sbag5
(g987
g7
Ntp1917
Rp1918
(dp1919
g991
g130
sg19
S'\x80>0[^_\x0f\x95\xc0\xc3'
p1920
sg21
L16953L
sg28
I8
sg22
Nsg23
L16L
sg24
(lp1921
g130
ag27
ag49
ag106
asg18
L16944L
sbag5
(g987
g7
Ntp1922
Rp1923
(dp1924
g991
g49
sg19
g1920
sg21
L16953L
sg28
I0
sg22
Nsg23
L16L
sg24
g1921
sg18
L16944L
sbag5
(g987
g7
Ntp1925
Rp1926
(dp1927
g991
g106
sg19
g1920
sg21
L16953L
sg28
I4
sg22
Nsg23
L16L
sg24
g1921
sg18
L16944L
sbag5
(g987
g7
Ntp1928
Rp1929
(dp1930
g991
g130
sg19
S'9W\x10[^_\x0f\x94\xc0\xc3'
p1931
sg21
L48725L
sg28
I8
sg22
Nsg23
L16L
sg24
(lp1932
g130
ag27
ag49
ag106
asg18
L48716L
sbag5
(g987
g7
Ntp1933
Rp1934
(dp1935
g991
g49
sg19
g1931
sg21
L48725L
sg28
I0
sg22
Nsg23
L16L
sg24
g1932
sg18
L48716L
sbag5
(g987
g7
Ntp1936
Rp1937
(dp1938
g991
g106
sg19
g1931
sg21
L48725L
sg28
I4
sg22
Nsg23
L16L
sg24
g1932
sg18
L48716L
sbag5
(g987
g7
Ntp1939
Rp1940
(dp1941
g991
g130
sg19
g929
sg21
L59977L
sg28
I8
sg22
Nsg23
L16L
sg24
g930
sg18
L59966L
sbag5
(g987
g7
Ntp1942
Rp1943
(dp1944
g991
g49
sg19
g929
sg21
L59977L
sg28
I0
sg22
Nsg23
L16L
sg24
g930
sg18
L59966L
sbag5
(g987
g7
Ntp1945
Rp1946
(dp1947
g991
g106
sg19
g929
sg21
L59977L
sg28
I4
sg22
Nsg23
L16L
sg24
g930
sg18
L59966L
sbag5
(g987
g7
Ntp1948
Rp1949
(dp1950
g991
g130
sg19
S';[^_\xc3'
p1951
sg21
L65189L
sg28
I0
sg22
Nsg23
L8L
sg24
(lp1952
g130
asg18
L65185L
sbag5
(g987
g7
Ntp1953
Rp1954
(dp1955
g991
g49
sg19
S'\x83\xff\xff\x83\xc4\x10\x83\xc4\x04[^\xc3'
p1956
sg21
L39416L
sg28
I20
sg22
Nsg23
L32L
sg24
(lp1957
g49
ag106
asg18
L39405L
sbag5
(g987
g7
Ntp1958
Rp1959
(dp1960
g991
g106
sg19
g1956
sg21
L39416L
sg28
I24
sg22
Nsg23
L32L
sg24
g1957
sg18
L39405L
sbag5
(g987
g7
Ntp1961
Rp1962
(dp1963
g991
g130
sg19
g934
sg21
L59918L
sg28
I8
sg22
Nsg23
L16L
sg24
g935
sg18
L59909L
sbag5
(g987
g7
Ntp1964
Rp1965
(dp1966
g991
g49
sg19
g934
sg21
L59918L
sg28
I0
sg22
Nsg23
L16L
sg24
g935
sg18
L59909L
sbag5
(g987
g7
Ntp1967
Rp1968
(dp1969
g991
g106
sg19
g934
sg21
L59918L
sg28
I4
sg22
Nsg23
L16L
sg24
g935
sg18
L59909L
sbag5
(g987
g7
Ntp1970
Rp1971
(dp1972
g991
g130
sg19
S'\xa6^\x0f\x95\xc0_\xc3'
p1973
sg21
L16930L
sg28
I4
sg22
Nsg23
L12L
sg24
(lp1974
g130
ag27
ag106
asg18
L16924L
sbag5
(g987
g7
Ntp1975
Rp1976
(dp1977
g991
g106
sg19
g1973
sg21
L16930L
sg28
I0
sg22
Nsg23
L12L
sg24
g1974
sg18
L16924L
sbag5
(g987
g7
Ntp1978
Rp1979
(dp1980
g991
g130
sg19
g939
sg21
L59918L
sg28
I8
sg22
Nsg23
L16L
sg24
g940
sg18
L59910L
sbag5
(g987
g7
Ntp1981
Rp1982
(dp1983
g991
g49
sg19
g939
sg21
L59918L
sg28
I0
sg22
Nsg23
L16L
sg24
g940
sg18
L59910L
sbag5
(g987
g7
Ntp1984
Rp1985
(dp1986
g991
g106
sg19
g939
sg21
L59918L
sg28
I4
sg22
Nsg23
L16L
sg24
g940
sg18
L59910L
sbag5
(g987
g7
Ntp1987
Rp1988
(dp1989
g991
g49
sg19
S'H[\xc3'
p1990
sg21
L65955L
sg28
I0
sg22
Nsg23
L8L
sg24
(lp1991
g27
ag49
asg18
L65953L
sbag5
(g987
g7
Ntp1992
Rp1993
(dp1994
g991
g130
sg19
S'K[^_\xc3'
p1995
sg21
L44658L
sg28
I8
sg22
Nsg23
L16L
sg24
(lp1996
g130
ag49
ag106
asg18
L44654L
sbag5
(g987
g7
Ntp1997
Rp1998
(dp1999
g991
g49
sg19
g1995
sg21
L44658L
sg28
I0
sg22
Nsg23
L16L
sg24
g1996
sg18
L44654L
sbag5
(g987
g7
Ntp2000
Rp2001
(dp2002
g991
g106
sg19
g1995
sg21
L44658L
sg28
I4
sg22
Nsg23
L16L
sg24
g1996
sg18
L44654L
sbag5
(g987
g7
Ntp2003
Rp2004
(dp2005
g991
g49
sg19
S'\xf6u\x1f\x83\xc4\x04[^\xc3'
p2006
sg21
L76346L
sg28
I4
sg22
Nsg23
L16L
sg24
(lp2007
g27
ag49
ag106
asg18
L76338L
sbag5
(g987
g7
Ntp2008
Rp2009
(dp2010
g991
g106
sg19
g2006
sg21
L76346L
sg28
I8
sg22
Nsg23
L16L
sg24
g2007
sg18
L76338L
sbag5
(g987
g7
Ntp2011
Rp2012
(dp2013
g991
g49
sg19
S'\xf6u\x06\x83\xc4\x04[^\xc3'
p2014
sg21
L76218L
sg28
I4
sg22
Nsg23
L16L
sg24
(lp2015
g27
ag49
ag106
asg18
L76210L
sbag5
(g987
g7
Ntp2016
Rp2017
(dp2018
g991
g106
sg19
g2014
sg21
L76218L
sg28
I8
sg22
Nsg23
L16L
sg24
g2015
sg18
L76210L
sbag5
(g987
g7
Ntp2019
Rp2020
(dp2021
g991
g130
sg19
S'\xf7s\x0c[\xb8\xff\xff\xff\xff^_\xc3'
p2022
sg21
L30332L
sg28
I8
sg22
Nsg23
L16L
sg24
(lp2023
g130
ag27
ag17
ag49
ag106
asg18
L30321L
sbag5
(g987
g7
Ntp2024
Rp2025
(dp2026
g991
g49
sg19
g2022
sg21
L30332L
sg28
I0
sg22
Nsg23
L16L
sg24
g2023
sg18
L30321L
sbag5
(g987
g7
Ntp2027
Rp2028
(dp2029
g991
g106
sg19
g2022
sg21
L30332L
sg28
I4
sg22
Nsg23
L16L
sg24
g2023
sg18
L30321L
sbag5
(g987
g7
Ntp2030
Rp2031
(dp2032
g991
g130
sg19
S'\xd8\x83\xc4\x1c[^_]\xc3'
p2033
sg21
L19405L
sg28
I0
sg22
Nsg23
L12L
sg24
(lp2034
g130
ag69
asg18
L19397L
sbag5
(g987
g7
Ntp2035
Rp2036
(dp2037
g991
g69
sg19
g2033
sg21
L19405L
sg28
I4
sg22
Nsg23
L12L
sg24
g2034
sg18
L19397L
sbag5
(g987
g7
Ntp2038
Rp2039
(dp2040
g991
g130
sg19
S'\xd8[^_]\xc3'
p2041
sg21
L20762L
sg28
I0
sg22
Nsg23
L12L
sg24
(lp2042
g130
ag69
asg18
L20757L
sbag5
(g987
g7
Ntp2043
Rp2044
(dp2045
g991
g69
sg19
g2041
sg21
L20762L
sg28
I4
sg22
Nsg23
L12L
sg24
g2042
sg18
L20757L
sbag5
(g987
g7
Ntp2046
Rp2047
(dp2048
g991
g69
sg19
S'\xd8^_]\xc3'
p2049
sg21
L83591L
sg28
I0
sg22
Nsg23
L8L
sg24
(lp2050
g69
asg18
L83587L
sbag5
(g987
g7
Ntp2051
Rp2052
(dp2053
g991
g106
sg19
S'\xdc\xff\xff\x83\xc4\x10\x83\xc4\x04[^\xc3'
p2054
sg21
L17923L
sg28
I0
sg22
Nsg23
L8L
sg24
(lp2055
g27
ag106
asg18
L17912L
sbag5
(g987
g7
Ntp2056
Rp2057
(dp2058
g991
g130
sg19
S'\xda\x83\xc4\x14[^_]\xc3'
p2059
sg21
L85473L
sg28
I0
sg22
Nsg23
L12L
sg24
(lp2060
g130
ag69
asg18
L85465L
sbag5
(g987
g7
Ntp2061
Rp2062
(dp2063
g991
g69
sg19
g2059
sg21
L85473L
sg28
I4
sg22
Nsg23
L12L
sg24
g2060
sg18
L85465L
sbag5
(g987
g7
Ntp2064
Rp2065
(dp2066
g991
g130
sg19
S'\xda\x83\xc4\x1c[^_]\xc3'
p2067
sg21
L88242L
sg28
I0
sg22
Nsg23
L12L
sg24
(lp2068
g130
ag69
asg18
L88234L
sbag5
(g987
g7
Ntp2069
Rp2070
(dp2071
g991
g69
sg19
g2067
sg21
L88242L
sg28
I4
sg22
Nsg23
L12L
sg24
g2068
sg18
L88234L
sbag5
(g987
g7
Ntp2072
Rp2073
(dp2074
g991
g130
sg19
S'\xda\x83\xc4,[^_]\xc3'
p2075
sg21
L88626L
sg28
I0
sg22
Nsg23
L12L
sg24
(lp2076
g130
ag69
asg18
L88618L
sbag5
(g987
g7
Ntp2077
Rp2078
(dp2079
g991
g69
sg19
g2075
sg21
L88626L
sg28
I4
sg22
Nsg23
L12L
sg24
g2076
sg18
L88618L
sbag5
(g987
g7
Ntp2080
Rp2081
(dp2082
g991
g49
sg19
S'k\x00\x00\x83\xc4\x18[\xc3'
p2083
sg21
L18836L
sg28
I24
sg22
Nsg23
L32L
sg24
(lp2084
g27
ag49
asg18
L18829L
sbag5
(g987
g7
Ntp2085
Rp2086
(dp2087
g991
g130
sg19
S'\xe4[1\xc0^_\xc3'
p2088
sg21
L49057L
sg28
I4
sg22
Nsg23
L12L
sg24
(lp2089
g130
ag27
ag106
asg18
L49051L
sbag5
(g987
g7
Ntp2090
Rp2091
(dp2092
g991
g106
sg19
g2088
sg21
L49057L
sg28
I0
sg22
Nsg23
L12L
sg24
g2089
sg18
L49051L
sbag5
(g987
g7
Ntp2093
Rp2094
(dp2095
g991
g130
sg19
S'\xec\x00\x00\x00[^_]\xc3'
p2096
sg21
L86963L
sg28
I0
sg22
Nsg23
L12L
sg24
(lp2097
g130
ag27
ag69
asg18
L86955L
sbag5
(g987
g7
Ntp2098
Rp2099
(dp2100
g991
g69
sg19
g2096
sg21
L86963L
sg28
I4
sg22
Nsg23
L12L
sg24
g2097
sg18
L86955L
sbag5
(g987
g7
Ntp2101
Rp2102
(dp2103
g991
g49
sg19
S'\xec\x83\xc4\x04[^\xc3'
p2104
sg21
L82889L
sg28
I4
sg22
Nsg23
L16L
sg24
(lp2105
g27
ag49
ag106
asg18
L82883L
sbag5
(g987
g7
Ntp2106
Rp2107
(dp2108
g991
g106
sg19
g2104
sg21
L82889L
sg28
I8
sg22
Nsg23
L16L
sg24
g2105
sg18
L82883L
sbag5
(g987
g7
Ntp2109
Rp2110
(dp2111
g991
g49
sg19
g890
sg21
L45087L
sg28
I0
sg22
Nsg23
L8L
sg24
g891
sg18
L45085L
sbag5
(g987
g7
Ntp2112
Rp2113
(dp2114
g991
g130
sg19
S'\xff\x83\xc4 \x89;[^_\xc3'
p2115
sg21
L65189L
sg28
I8
sg22
Nsg23
L16L
sg24
(lp2116
g130
ag49
ag106
asg18
L65180L
sbag5
(g987
g7
Ntp2117
Rp2118
(dp2119
g991
g49
sg19
g2115
sg21
L65189L
sg28
I0
sg22
Nsg23
L16L
sg24
g2116
sg18
L65180L
sbag5
(g987
g7
Ntp2120
Rp2121
(dp2122
g991
g106
sg19
g2115
sg21
L65189L
sg28
I4
sg22
Nsg23
L16L
sg24
g2116
sg18
L65180L
sbag5
(g987
g7
Ntp2123
Rp2124
(dp2125
g991
g130
sg19
S'\xff\x83\xc4\x10[^_\xc3'
p2126
sg21
L18765L
sg28
I0
sg22
Nsg23
L8L
sg24
(lp2127
g130
asg18
L18758L
sbag5
(g987
g7
Ntp2128
Rp2129
(dp2130
g991
g130
sg19
S'\xff\x83\xc4 [^_\xc3'
p2131
sg21
L44001L
sg28
I0
sg22
Nsg23
L8L
sg24
(lp2132
g130
asg18
L43994L
sbag5
(g987
g7
Ntp2133
Rp2134
(dp2135
g991
g130
sg19
S'\xff\x83\xc4<[^_]\xc3'
p2136
sg21
L48977L
sg28
I0
sg22
Nsg23
L12L
sg24
(lp2137
g130
ag69
asg18
L48969L
sbag5
(g987
g7
Ntp2138
Rp2139
(dp2140
g991
g69
sg19
g2136
sg21
L48977L
sg28
I4
sg22
Nsg23
L12L
sg24
g2137
sg18
L48969L
sbag5
(g987
g7
Ntp2141
Rp2142
(dp2143
g991
g106
sg19
S'\xff\x83\xc4\x10\x83\xc4\x04[^\xc3'
p2144
sg21
L17923L
sg28
I0
sg22
Nsg23
L8L
sg24
(lp2145
g27
ag106
asg18
L17914L
sbag5
(g987
g7
Ntp2146
Rp2147
(dp2148
g991
g49
sg19
S'\xff\x83\xc4\x101\xc0\x83\xc4\x04[^\xc3'
p2149
sg21
L76371L
sg28
I4
sg22
Nsg23
L16L
sg24
(lp2150
g49
ag106
asg18
L76360L
sbag5
(g987
g7
Ntp2151
Rp2152
(dp2153
g991
g106
sg19
g2149
sg21
L76371L
sg28
I8
sg22
Nsg23
L16L
sg24
g2150
sg18
L76360L
sbag5
(g987
g7
Ntp2154
Rp2155
(dp2156
g991
g130
sg19
S'@_\n\x0e\x14A\xc3'
p2157
sg21
L117166L
sg28
I0
sg22
Nsg23
L8L
sg24
(lp2158
g130
ag27
ag14
asg18
L117160L
sbag5
(g987
g7
Ntp2159
Rp2160
(dp2161
g991
g17
sg19
S'@Z\n\x0e\x14A\xc3'
p2162
sg21
L128077L
sg28
I0
sg22
Nsg23
L8L
sg24
(lp2163
g27
ag17
ag14
asg18
L128071L
sbag5
(g987
g7
Ntp2164
Rp2165
(dp2166
g991
g17
sg19
S'@Z\x0e0l\n\x0e\x14C\xc3'
p2167
sg21
L116325L
sg28
I0
sg22
Nsg23
L4L
sg24
(lp2168
g27
ag17
asg18
L116316L
sbag5
(g987
g7
Ntp2169
Rp2170
(dp2171
g991
g106
sg19
S'C\x0c[^\t\xc2\x0f\x94\xc0\xc3'
p2172
sg21
L16131L
sg28
I0
sg22
Nsg23
L8L
sg24
(lp2173
g27
ag17
ag49
ag106
asg18
L16122L
sbag5
(g987
g7
Ntp2174
Rp2175
(dp2176
g991
g130
sg19
S'F\x10\x00\x00\x00\x00[^_\xc3'
p2177
sg21
L50077L
sg28
I0
sg22
Nsg23
L8L
sg24
(lp2178
g130
ag106
asg18
L50068L
sbag5
(g987
g7
Ntp2179
Rp2180
(dp2181
g991
g130
sg19
S'\x8d\x83|o\xff\xff[^_\x0fE\xc2\xc3'
p2182
sg21
L59977L
sg28
I8
sg22
Nsg23
L16L
sg24
(lp2183
g130
ag27
ag49
ag106
asg18
L59965L
sbag5
(g987
g7
Ntp2184
Rp2185
(dp2186
g991
g49
sg19
g2182
sg21
L59977L
sg28
I0
sg22
Nsg23
L16L
sg24
g2183
sg18
L59965L
sbag5
(g987
g7
Ntp2187
Rp2188
(dp2189
g991
g106
sg19
g2182
sg21
L59977L
sg28
I4
sg22
Nsg23
L16L
sg24
g2183
sg18
L59965L
sbag5
(g987
g7
Ntp2190
Rp2191
(dp2192
g991
g130
sg19
S'\x8d\x83to\xff\xff[^_\x0fE\xc2\xc3'
p2193
sg21
L59873L
sg28
I8
sg22
Nsg23
L16L
sg24
(lp2194
g130
ag27
ag49
ag106
asg18
L59861L
sbag5
(g987
g7
Ntp2195
Rp2196
(dp2197
g991
g49
sg19
g2193
sg21
L59873L
sg28
I0
sg22
Nsg23
L16L
sg24
g2194
sg18
L59861L
sbag5
(g987
g7
Ntp2198
Rp2199
(dp2200
g991
g106
sg19
g2193
sg21
L59873L
sg28
I4
sg22
Nsg23
L16L
sg24
g2194
sg18
L59861L
sbag5
(g987
g7
Ntp2201
Rp2202
(dp2203
g991
g49
sg19
g482
sg21
L48190L
sg28
I0
sg22
Nsg23
L12L
sg24
g483
sg18
L48180L
sbag5
(g987
g7
Ntp2204
Rp2205
(dp2206
g991
g106
sg19
g482
sg21
L48190L
sg28
I4
sg22
Nsg23
L12L
sg24
g483
sg18
L48180L
sbag5
(g987
g7
Ntp2207
Rp2208
(dp2209
g991
g130
sg19
S'\x8dt&\x001\xc0[^_\xc3'
p2210
sg21
L16941L
sg28
I8
sg22
Nsg23
L16L
sg24
(lp2211
g130
ag27
ag49
ag106
asg18
L16932L
sbag5
(g987
g7
Ntp2212
Rp2213
(dp2214
g991
g49
sg19
g2210
sg21
L16941L
sg28
I0
sg22
Nsg23
L16L
sg24
g2211
sg18
L16932L
sbag5
(g987
g7
Ntp2215
Rp2216
(dp2217
g991
g106
sg19
g2210
sg21
L16941L
sg28
I4
sg22
Nsg23
L16L
sg24
g2211
sg18
L16932L
sbag5
(g987
g7
Ntp2218
Rp2219
(dp2220
g991
g49
sg19
S'\x8dt&\x001\xc0[^\xc3'
p2221
sg21
L46380L
sg28
I0
sg22
Nsg23
L12L
sg24
(lp2222
g27
ag49
ag106
asg18
L46372L
sbag5
(g987
g7
Ntp2223
Rp2224
(dp2225
g991
g106
sg19
g2221
sg21
L46380L
sg28
I4
sg22
Nsg23
L12L
sg24
g2222
sg18
L46372L
sbag5
(g987
g7
Ntp2226
Rp2227
(dp2228
g991
g130
sg19
S'\xac\x04\x00\x00[^_]\xc3'
p2229
sg21
L68032L
sg28
I0
sg22
Nsg23
L12L
sg24
(lp2230
g130
ag27
ag69
ag106
asg18
L68024L
sbag5
(g987
g7
Ntp2231
Rp2232
(dp2233
g991
g69
sg19
g2229
sg21
L68032L
sg28
I4
sg22
Nsg23
L12L
sg24
g2230
sg18
L68024L
sbag5
(g987
g7
Ntp2234
Rp2235
(dp2236
g991
g130
sg19
S'\xac\x00\x00\x00[^_]\xc3'
p2237
sg21
L52980L
sg28
I0
sg22
Nsg23
L12L
sg24
(lp2238
g130
ag27
ag69
ag106
asg18
L52972L
sbag5
(g987
g7
Ntp2239
Rp2240
(dp2241
g991
g69
sg19
g2237
sg21
L52980L
sg28
I4
sg22
Nsg23
L12L
sg24
g2238
sg18
L52972L
sbag5
(g987
g7
Ntp2242
Rp2243
(dp2244
g991
g130
sg19
S'\xb0@_\n\x0e\x14A\xc3'
p2245
sg21
L117166L
sg28
I0
sg22
Nsg23
L8L
sg24
(lp2246
g130
ag27
ag14
asg18
L117159L
sbag5
(g987
g7
Ntp2247
Rp2248
(dp2249
g991
g49
sg19
S'\xb0k\x00\x00\x83\xc4\x18[\xc3'
p2250
sg21
L18836L
sg28
I24
sg22
Nsg23
L32L
sg24
(lp2251
g27
ag49
asg18
L18828L
sbag5
(g987
g7
Ntp2252
Rp2253
(dp2254
g991
g130
sg19
S'\xb0\x89\xd8[^_]\xc3'
p2255
sg21
L47654L
sg28
I0
sg22
Nsg23
L12L
sg24
(lp2256
g130
ag27
ag69
asg18
L47647L
sbag5
(g987
g7
Ntp2257
Rp2258
(dp2259
g991
g69
sg19
g2255
sg21
L47654L
sg28
I4
sg22
Nsg23
L12L
sg24
g2256
sg18
L47647L
sbag5
(g987
g7
Ntp2260
Rp2261
(dp2262
g991
g130
sg19
S'\xa0\x02\x00\x00[^_\xc3'
p2263
sg21
L28335L
sg28
I4
sg22
Nsg23
L12L
sg24
(lp2264
g130
ag27
ag106
asg18
L28328L
sbag5
(g987
g7
Ntp2265
Rp2266
(dp2267
g991
g106
sg19
g2263
sg21
L28335L
sg28
I0
sg22
Nsg23
L12L
sg24
g2264
sg18
L28328L
sbag5
(g987
g7
Ntp2268
Rp2269
(dp2270
g991
g49
sg19
S'\x88B\t[\xc3'
p2271
sg21
L45721L
sg28
I0
sg22
Nsg23
L8L
sg24
(lp2272
g49
asg18
L45717L
sbag5
(g987
g7
Ntp2273
Rp2274
(dp2275
g991
g130
sg19
S'\x88~\xff\xff\x83\xc4\x10[^_\xc3'
p2276
sg21
L40734L
sg28
I0
sg22
Nsg23
L8L
sg24
(lp2277
g130
asg18
L40724L
sbag5
(g987
g7
Ntp2278
Rp2279
(dp2280
g991
g49
sg19
g492
sg21
L65088L
sg28
I4
sg22
Nsg23
L16L
sg24
g493
sg18
L65077L
sbag5
(g987
g7
Ntp2281
Rp2282
(dp2283
g991
g106
sg19
g492
sg21
L65088L
sg28
I8
sg22
Nsg23
L16L
sg24
g493
sg18
L65077L
sbag5
(g987
g7
Ntp2284
Rp2285
(dp2286
g991
g49
sg19
g500
sg21
L65088L
sg28
I4
sg22
Nsg23
L16L
sg24
g501
sg18
L65080L
sbag5
(g987
g7
Ntp2287
Rp2288
(dp2289
g991
g106
sg19
g500
sg21
L65088L
sg28
I8
sg22
Nsg23
L16L
sg24
g501
sg18
L65080L
sbag5
(g987
g7
Ntp2290
Rp2291
(dp2292
g991
g130
sg19
g510
sg21
L65189L
sg28
I8
sg22
Nsg23
L16L
sg24
g511
sg18
L65184L
sbag5
(g987
g7
Ntp2293
Rp2294
(dp2295
g991
g49
sg19
g510
sg21
L65189L
sg28
I0
sg22
Nsg23
L16L
sg24
g511
sg18
L65184L
sbag5
(g987
g7
Ntp2296
Rp2297
(dp2298
g991
g106
sg19
g510
sg21
L65189L
sg28
I4
sg22
Nsg23
L16L
sg24
g511
sg18
L65184L
sbag5
(g987
g7
Ntp2299
Rp2300
(dp2301
g991
g49
sg19
g515
sg21
L64969L
sg28
I0
sg22
Nsg23
L12L
sg24
g516
sg18
L64965L
sbag5
(g987
g7
Ntp2302
Rp2303
(dp2304
g991
g106
sg19
g515
sg21
L64969L
sg28
I4
sg22
Nsg23
L12L
sg24
g516
sg18
L64965L
sbag5
(g987
g7
Ntp2305
Rp2306
(dp2307
g991
g49
sg19
g520
sg21
L48190L
sg28
I0
sg22
Nsg23
L12L
sg24
g521
sg18
L48184L
sbag5
(g987
g7
Ntp2308
Rp2309
(dp2310
g991
g106
sg19
g520
sg21
L48190L
sg28
I4
sg22
Nsg23
L12L
sg24
g521
sg18
L48184L
sbag5
(g987
g7
Ntp2311
Rp2312
(dp2313
g991
g130
sg19
S'\xc7F\x10\x00\x00\x00\x00[^_\xc3'
p2314
sg21
L50077L
sg28
I8
sg22
Nsg23
L16L
sg24
(lp2315
g130
ag49
ag106
asg18
L50067L
sbag5
(g987
g7
Ntp2316
Rp2317
(dp2318
g991
g49
sg19
g2314
sg21
L50077L
sg28
I0
sg22
Nsg23
L16L
sg24
g2315
sg18
L50067L
sbag5
(g987
g7
Ntp2319
Rp2320
(dp2321
g991
g106
sg19
g2314
sg21
L50077L
sg28
I4
sg22
Nsg23
L16L
sg24
g2315
sg18
L50067L
sbag5
(g987
g7
Ntp2322
Rp2323
(dp2324
g991
g130
sg19
S'\xb8\xff\xff\xff\xff[^_]\xc3'
p2325
sg21
L29468L
sg28
I8
sg22
Nsg23
L20L
sg24
(lp2326
g130
ag27
ag69
ag49
ag106
asg18
L29459L
sbag5
(g987
g7
Ntp2327
Rp2328
(dp2329
g991
g69
sg19
g2325
sg21
L29468L
sg28
I12
sg22
Nsg23
L20L
sg24
g2326
sg18
L29459L
sbag5
(g987
g7
Ntp2330
Rp2331
(dp2332
g991
g49
sg19
g2325
sg21
L29468L
sg28
I0
sg22
Nsg23
L20L
sg24
g2326
sg18
L29459L
sbag5
(g987
g7
Ntp2333
Rp2334
(dp2335
g991
g106
sg19
g2325
sg21
L29468L
sg28
I4
sg22
Nsg23
L20L
sg24
g2326
sg18
L29459L
sbag5
(g987
g7
Ntp2336
Rp2337
(dp2338
g991
g49
sg19
S'\xb8\xff\xff\xff\xff[^\xc3'
p2339
sg21
L39671L
sg28
I0
sg22
Nsg23
L12L
sg24
(lp2340
g27
ag49
ag106
asg18
L39664L
sbag5
(g987
g7
Ntp2341
Rp2342
(dp2343
g991
g106
sg19
g2339
sg21
L39671L
sg28
I4
sg22
Nsg23
L12L
sg24
g2340
sg18
L39664L
sbag5
(g987
g7
Ntp2344
Rp2345
(dp2346
g991
g130
sg19
S'\xb8\xff\xff\xff\xff^_\xc3'
p2347
sg21
L29616L
sg28
I4
sg22
Nsg23
L12L
sg24
(lp2348
g130
ag27
ag106
asg18
L29609L
sbag5
(g987
g7
Ntp2349
Rp2350
(dp2351
g991
g106
sg19
g2347
sg21
L29616L
sg28
I0
sg22
Nsg23
L12L
sg24
g2348
sg18
L29609L
sbag5
(g987
g7
Ntp2352
Rp2353
(dp2354
g991
g49
sg19
g638
sg21
L45258L
sg28
I4
sg22
Nsg23
L16L
sg24
g639
sg18
L45248L
sbag5
(g987
g7
Ntp2355
Rp2356
(dp2357
g991
g106
sg19
g638
sg21
L45258L
sg28
I8
sg22
Nsg23
L16L
sg24
g639
sg18
L45248L
sbag5
(g987
g7
Ntp2358
Rp2359
(dp2360
g991
g49
sg19
g643
sg21
L48199L
sg28
I0
sg22
Nsg23
L12L
sg24
g644
sg18
L48192L
sbag5
(g987
g7
Ntp2361
Rp2362
(dp2363
g991
g106
sg19
g643
sg21
L48199L
sg28
I4
sg22
Nsg23
L12L
sg24
g644
sg18
L48192L
sbag5
(g987
g7
Ntp2364
Rp2365
(dp2366
g991
g130
sg19
g654
sg21
L81304L
sg28
I4
sg22
Nsg23
L16L
sg24
g655
sg18
L81296L
sbag5
(g987
g7
Ntp2367
Rp2368
(dp2369
g991
g69
sg19
g654
sg21
L81304L
sg28
I8
sg22
Nsg23
L16L
sg24
g655
sg18
L81296L
sbag5
(g987
g7
Ntp2370
Rp2371
(dp2372
g991
g106
sg19
g654
sg21
L81304L
sg28
I0
sg22
Nsg23
L16L
sg24
g655
sg18
L81296L
sbag5
(g987
g7
Ntp2373
Rp2374
(dp2375
g991
g130
sg19
g662
sg21
L30309L
sg28
I4
sg22
Nsg23
L12L
sg24
g663
sg18
L30302L
sbag5
(g987
g7
Ntp2376
Rp2377
(dp2378
g991
g106
sg19
g662
sg21
L30309L
sg28
I0
sg22
Nsg23
L12L
sg24
g663
sg18
L30302L
sbag5
(g987
g7
Ntp2379
Rp2380
(dp2381
g991
g49
sg19
g847
sg21
L49260L
sg28
I4
sg22
Nsg23
L16L
sg24
g848
sg18
L49253L
sbag5
(g987
g7
Ntp2382
Rp2383
(dp2384
g991
g106
sg19
g847
sg21
L49260L
sg28
I8
sg22
Nsg23
L16L
sg24
g848
sg18
L49253L
sbag5
(g987
g7
Ntp2385
Rp2386
(dp2387
g991
g130
sg19
g857
sg21
L49077L
sg28
I8
sg22
Nsg23
L16L
sg24
g858
sg18
L49072L
sbag5
(g987
g7
Ntp2388
Rp2389
(dp2390
g991
g49
sg19
g857
sg21
L49077L
sg28
I0
sg22
Nsg23
L16L
sg24
g858
sg18
L49072L
sbag5
(g987
g7
Ntp2391
Rp2392
(dp2393
g991
g106
sg19
g857
sg21
L49077L
sg28
I4
sg22
Nsg23
L16L
sg24
g858
sg18
L49072L
sbag5
(g987
g7
Ntp2394
Rp2395
(dp2396
g991
g27
sg19
S'\x8b\x04$\xc3'
p2397
sg21
L43317L
sg28
I0
sg22
Nsg23
L4L
sg24
(lp2398
g27
asg18
L43314L
sbag5
(g987
g7
Ntp2399
Rp2400
(dp2401
g991
g130
sg19
S'\x89\xe8[^_]\xc3'
p2402
sg21
L29266L
sg28
I8
sg22
Nsg23
L20L
sg24
(lp2403
g130
ag27
ag69
ag49
ag106
asg18
L29260L
sbag5
(g987
g7
Ntp2404
Rp2405
(dp2406
g991
g69
sg19
g2402
sg21
L29266L
sg28
I12
sg22
Nsg23
L20L
sg24
g2403
sg18
L29260L
sbag5
(g987
g7
Ntp2407
Rp2408
(dp2409
g991
g49
sg19
g2402
sg21
L29266L
sg28
I0
sg22
Nsg23
L20L
sg24
g2403
sg18
L29260L
sbag5
(g987
g7
Ntp2410
Rp2411
(dp2412
g991
g106
sg19
g2402
sg21
L29266L
sg28
I4
sg22
Nsg23
L20L
sg24
g2403
sg18
L29260L
sbag5
(g987
g7
Ntp2413
Rp2414
(dp2415
g991
g130
sg19
S'\x89\xe8^_]\xc3'
p2416
sg21
L82772L
sg28
I4
sg22
Nsg23
L16L
sg24
(lp2417
g130
ag27
ag69
ag106
asg18
L82767L
sbag5
(g987
g7
Ntp2418
Rp2419
(dp2420
g991
g69
sg19
g2416
sg21
L82772L
sg28
I8
sg22
Nsg23
L16L
sg24
g2417
sg18
L82767L
sbag5
(g987
g7
Ntp2421
Rp2422
(dp2423
g991
g106
sg19
g2416
sg21
L82772L
sg28
I0
sg22
Nsg23
L16L
sg24
g2417
sg18
L82767L
sbag5
(g987
g7
Ntp2424
Rp2425
(dp2426
g991
g130
sg19
S'\x89\xd8[^_]\xc3'
p2427
sg21
L20762L
sg28
I8
sg22
Nsg23
L20L
sg24
(lp2428
g130
ag27
ag69
ag49
ag106
asg18
L20756L
sbag5
(g987
g7
Ntp2429
Rp2430
(dp2431
g991
g69
sg19
g2427
sg21
L20762L
sg28
I12
sg22
Nsg23
L20L
sg24
g2428
sg18
L20756L
sbag5
(g987
g7
Ntp2432
Rp2433
(dp2434
g991
g49
sg19
g2427
sg21
L20762L
sg28
I0
sg22
Nsg23
L20L
sg24
g2428
sg18
L20756L
sbag5
(g987
g7
Ntp2435
Rp2436
(dp2437
g991
g106
sg19
g2427
sg21
L20762L
sg28
I4
sg22
Nsg23
L20L
sg24
g2428
sg18
L20756L
sbag5
(g987
g7
Ntp2438
Rp2439
(dp2440
g991
g130
sg19
S'\x89\xf8[^_]\xc3'
p2441
sg21
L43529L
sg28
I8
sg22
Nsg23
L20L
sg24
(lp2442
g130
ag27
ag69
ag49
ag106
asg18
L43523L
sbag5
(g987
g7
Ntp2443
Rp2444
(dp2445
g991
g69
sg19
g2441
sg21
L43529L
sg28
I12
sg22
Nsg23
L20L
sg24
g2442
sg18
L43523L
sbag5
(g987
g7
Ntp2446
Rp2447
(dp2448
g991
g49
sg19
g2441
sg21
L43529L
sg28
I0
sg22
Nsg23
L20L
sg24
g2442
sg18
L43523L
sbag5
(g987
g7
Ntp2449
Rp2450
(dp2451
g991
g106
sg19
g2441
sg21
L43529L
sg28
I4
sg22
Nsg23
L20L
sg24
g2442
sg18
L43523L
sbag5
(g987
g7
Ntp2452
Rp2453
(dp2454
g991
g130
sg19
S'\x89\xf8[^_\xc3'
p2455
sg21
L44869L
sg28
I8
sg22
Nsg23
L16L
sg24
(lp2456
g130
ag27
ag49
ag106
asg18
L44864L
sbag5
(g987
g7
Ntp2457
Rp2458
(dp2459
g991
g49
sg19
g2455
sg21
L44869L
sg28
I0
sg22
Nsg23
L16L
sg24
g2456
sg18
L44864L
sbag5
(g987
g7
Ntp2460
Rp2461
(dp2462
g991
g106
sg19
g2455
sg21
L44869L
sg28
I4
sg22
Nsg23
L16L
sg24
g2456
sg18
L44864L
sbag5
(g987
g7
Ntp2463
Rp2464
(dp2465
g991
g130
sg19
S'\x89\xf8^_]\xc3'
p2466
sg21
L43574L
sg28
I4
sg22
Nsg23
L16L
sg24
(lp2467
g130
ag27
ag69
ag106
asg18
L43569L
sbag5
(g987
g7
Ntp2468
Rp2469
(dp2470
g991
g69
sg19
g2466
sg21
L43574L
sg28
I8
sg22
Nsg23
L16L
sg24
g2467
sg18
L43569L
sbag5
(g987
g7
Ntp2471
Rp2472
(dp2473
g991
g106
sg19
g2466
sg21
L43574L
sg28
I0
sg22
Nsg23
L16L
sg24
g2467
sg18
L43569L
sbag5
(g987
g7
Ntp2474
Rp2475
(dp2476
g991
g49
sg19
g944
sg21
L45168L
sg28
I0
sg22
Nsg23
L12L
sg24
g945
sg18
L45164L
sbag5
(g987
g7
Ntp2477
Rp2478
(dp2479
g991
g106
sg19
g944
sg21
L45168L
sg28
I4
sg22
Nsg23
L12L
sg24
g945
sg18
L45164L
sbag5
(g987
g7
Ntp2480
Rp2481
(dp2482
g991
g49
sg19
g949
sg21
L81965L
sg28
I0
sg22
Nsg23
L8L
sg24
g950
sg18
L81962L
sbag5
(g987
g7
Ntp2483
Rp2484
(dp2485
g991
g130
sg19
S'\x89\xf0[^_]\xc3'
p2486
sg21
L24681L
sg28
I8
sg22
Nsg23
L20L
sg24
(lp2487
g130
ag27
ag69
ag49
ag106
asg18
L24675L
sbag5
(g987
g7
Ntp2488
Rp2489
(dp2490
g991
g69
sg19
g2486
sg21
L24681L
sg28
I12
sg22
Nsg23
L20L
sg24
g2487
sg18
L24675L
sbag5
(g987
g7
Ntp2491
Rp2492
(dp2493
g991
g49
sg19
g2486
sg21
L24681L
sg28
I0
sg22
Nsg23
L20L
sg24
g2487
sg18
L24675L
sbag5
(g987
g7
Ntp2494
Rp2495
(dp2496
g991
g106
sg19
g2486
sg21
L24681L
sg28
I4
sg22
Nsg23
L20L
sg24
g2487
sg18
L24675L
sbag5
(g987
g7
Ntp2497
Rp2498
(dp2499
g991
g130
sg19
g895
sg21
L49069L
sg28
I8
sg22
Nsg23
L16L
sg24
g896
sg18
L49064L
sbag5
(g987
g7
Ntp2500
Rp2501
(dp2502
g991
g49
sg19
g895
sg21
L49069L
sg28
I0
sg22
Nsg23
L16L
sg24
g896
sg18
L49064L
sbag5
(g987
g7
Ntp2503
Rp2504
(dp2505
g991
g106
sg19
g895
sg21
L49069L
sg28
I4
sg22
Nsg23
L16L
sg24
g896
sg18
L49064L
sbag5
(g987
g7
Ntp2506
Rp2507
(dp2508
g991
g49
sg19
S'\x89\xf0[^\xc3'
p2509
sg21
L49525L
sg28
I0
sg22
Nsg23
L12L
sg24
(lp2510
g27
ag49
ag106
asg18
L49521L
sbag5
(g987
g7
Ntp2511
Rp2512
(dp2513
g991
g106
sg19
g2509
sg21
L49525L
sg28
I4
sg22
Nsg23
L12L
sg24
g2510
sg18
L49521L
sbag5
(g987
g7
Ntp2514
Rp2515
(dp2516
g991
g69
sg19
S'\x8b,$\xc3'
p2517
sg21
L43329L
sg28
I0
sg22
Nsg23
L4L
sg24
(lp2518
g69
asg18
L43326L
sbag5
(g987
g7
Ntp2519
Rp2520
(dp2521
g991
g49
sg19
S'\x8b\x1c$\xc3'
p2522
sg21
L15715L
sg28
I0
sg22
Nsg23
L4L
sg24
(lp2523
g49
asg18
L15712L
sbag5
(g987
g7
Ntp2524
Rp2525
(dp2526
g991
g130
sg19
S'\x8b<$\xc3'
p2527
sg21
L43325L
sg28
I0
sg22
Nsg23
L4L
sg24
(lp2528
g130
asg18
L43322L
sbag5
(g987
g7
Ntp2529
Rp2530
(dp2531
g991
g130
sg19
g959
sg21
L44887L
sg28
I8
sg22
Nsg23
L16L
sg24
g960
sg18
L44880L
sbag5
(g987
g7
Ntp2532
Rp2533
(dp2534
g991
g49
sg19
g959
sg21
L44887L
sg28
I0
sg22
Nsg23
L16L
sg24
g960
sg18
L44880L
sbag5
(g987
g7
Ntp2535
Rp2536
(dp2537
g991
g106
sg19
g959
sg21
L44887L
sg28
I4
sg22
Nsg23
L16L
sg24
g960
sg18
L44880L
sbag5
(g987
g7
Ntp2538
Rp2539
(dp2540
g991
g49
sg19
g675
sg21
L81965L
sg28
I8
sg22
Nsg23
L16L
sg24
g676
sg18
L81954L
sbag5
(g987
g7
Ntp2541
Rp2542
(dp2543
g991
g49
sg19
g865
sg21
L47739L
sg28
I4
sg22
Nsg23
L16L
sg24
g866
sg18
L47729L
sbag5
(g987
g7
Ntp2544
Rp2545
(dp2546
g991
g106
sg19
g865
sg21
L47739L
sg28
I8
sg22
Nsg23
L16L
sg24
g866
sg18
L47729L
sbag5
(g987
g7
Ntp2547
Rp2548
(dp2549
g991
g17
sg19
S'\x8b\x14$\xc3'
p2550
sg21
L16031L
sg28
I0
sg22
Nsg23
L4L
sg24
(lp2551
g17
asg18
L16028L
sbag5
(g987
g7
Ntp2552
Rp2553
(dp2554
g991
g106
sg19
S'\x8b4$\xc3'
p2555
sg21
L43321L
sg28
I0
sg22
Nsg23
L4L
sg24
(lp2556
g106
asg18
L43318L
sbag5
(g987
g7
Ntp2557
Rp2558
(dp2559
g991
g130
sg19
S'\xf7\xd8^_]\xc3'
p2560
sg21
L83591L
sg28
I4
sg22
Nsg23
L16L
sg24
(lp2561
g130
ag27
ag69
ag106
asg18
L83586L
sbag5
(g987
g7
Ntp2562
Rp2563
(dp2564
g991
g69
sg19
g2560
sg21
L83591L
sg28
I8
sg22
Nsg23
L16L
sg24
g2561
sg18
L83586L
sbag5
(g987
g7
Ntp2565
Rp2566
(dp2567
g991
g106
sg19
g2560
sg21
L83591L
sg28
I0
sg22
Nsg23
L16L
sg24
g2561
sg18
L83586L
sbag5
(g987
g7
Ntp2568
Rp2569
(dp2570
g991
g49
sg19
g680
sg21
L48199L
sg28
I0
sg22
Nsg23
L12L
sg24
g681
sg18
L48191L
sbag5
(g987
g7
Ntp2571
Rp2572
(dp2573
g991
g106
sg19
g680
sg21
L48199L
sg28
I4
sg22
Nsg23
L12L
sg24
g681
sg18
L48191L
sbag5
(g987
g7
Ntp2574
Rp2575
(dp2576
g991
g130
sg19
g870
sg21
L49077L
sg28
I8
sg22
Nsg23
L16L
sg24
g871
sg18
L49071L
sbag5
(g987
g7
Ntp2577
Rp2578
(dp2579
g991
g49
sg19
g870
sg21
L49077L
sg28
I0
sg22
Nsg23
L16L
sg24
g871
sg18
L49071L
sbag5
(g987
g7
Ntp2580
Rp2581
(dp2582
g991
g106
sg19
g870
sg21
L49077L
sg28
I4
sg22
Nsg23
L16L
sg24
g871
sg18
L49071L
sbag5
(g987
g7
Ntp2583
Rp2584
(dp2585
g991
g49
sg19
S'\x90\x8b\x1c$\xc3'
p2586
sg21
L15731L
sg28
I0
sg22
Nsg23
L4L
sg24
(lp2587
g49
asg18
L15727L
sbag5
(g987
g7
Ntp2588
Rp2589
(dp2590
g991
g49
sg19
S'\x90f\x90\x8b\x1c$\xc3'
p2591
sg21
L15731L
sg28
I0
sg22
Nsg23
L4L
sg24
(lp2592
g49
asg18
L15725L
sbag5
(g987
g7
Ntp2593
Rp2594
(dp2595
g991
g49
sg19
S'\x90f\x90f\x90\x8b\x1c$\xc3'
p2596
sg21
L15731L
sg28
I0
sg22
Nsg23
L4L
sg24
(lp2597
g49
asg18
L15723L
sbag5
(g987
g7
Ntp2598
Rp2599
(dp2600
g991
g49
sg19
S'\x90f\x90f\x90f\x90\x8b\x1c$\xc3'
p2601
sg21
L15731L
sg28
I0
sg22
Nsg23
L4L
sg24
(lp2602
g49
asg18
L15721L
sbag5
(g987
g7
Ntp2603
Rp2604
(dp2605
g991
g130
sg19
g699
sg21
L47528L
sg28
I8
sg22
Nsg23
L16L
sg24
g700
sg18
L47519L
sbag5
(g987
g7
Ntp2606
Rp2607
(dp2608
g991
g49
sg19
g699
sg21
L47528L
sg28
I0
sg22
Nsg23
L16L
sg24
g700
sg18
L47519L
sbag5
(g987
g7
Ntp2609
Rp2610
(dp2611
g991
g106
sg19
g699
sg21
L47528L
sg28
I4
sg22
Nsg23
L16L
sg24
g700
sg18
L47519L
sbag5
(g987
g7
Ntp2612
Rp2613
(dp2614
g991
g69
sg19
S'\x0c1\xc0[^_]\xc3'
p2615
sg21
L56331L
sg28
I0
sg22
Nsg23
L8L
sg24
(lp2616
g69
asg18
L56324L
sbag5
(g987
g7
Ntp2617
Rp2618
(dp2619
g991
g130
sg19
S'\x0c[\xb8\xff\xff\xff\xff^_\xc3'
p2620
sg21
L30332L
sg28
I4
sg22
Nsg23
L12L
sg24
(lp2621
g130
ag27
ag106
asg18
L30323L
sbag5
(g987
g7
Ntp2622
Rp2623
(dp2624
g991
g106
sg19
g2620
sg21
L30332L
sg28
I0
sg22
Nsg23
L12L
sg24
g2621
sg18
L30323L
sbag5
(g987
g7
Ntp2625
Rp2626
(dp2627
g991
g130
sg19
g710
sg21
L81304L
sg28
I4
sg22
Nsg23
L16L
sg24
g711
sg18
L81294L
sbag5
(g987
g7
Ntp2628
Rp2629
(dp2630
g991
g69
sg19
g710
sg21
L81304L
sg28
I8
sg22
Nsg23
L16L
sg24
g711
sg18
L81294L
sbag5
(g987
g7
Ntp2631
Rp2632
(dp2633
g991
g106
sg19
g710
sg21
L81304L
sg28
I0
sg22
Nsg23
L16L
sg24
g711
sg18
L81294L
sbag5
(g987
g7
Ntp2634
Rp2635
(dp2636
g991
g106
sg19
S'\x0c[^\t\xc2\x0f\x94\xc0\xc3'
p2637
sg21
L16131L
sg28
I0
sg22
Nsg23
L8L
sg24
(lp2638
g27
ag17
ag106
asg18
L16123L
sbag5
(g987
g7
Ntp2639
Rp2640
(dp2641
g991
g130
sg19
S'\x0c[^_]\xc3'
p2642
sg21
L19856L
sg28
I4
sg22
Nsg23
L16L
sg24
(lp2643
g130
ag27
ag69
ag106
asg18
L19851L
sbag5
(g987
g7
Ntp2644
Rp2645
(dp2646
g991
g69
sg19
g2642
sg21
L19856L
sg28
I8
sg22
Nsg23
L16L
sg24
g2643
sg18
L19851L
sbag5
(g987
g7
Ntp2647
Rp2648
(dp2649
g991
g106
sg19
g2642
sg21
L19856L
sg28
I0
sg22
Nsg23
L16L
sg24
g2643
sg18
L19851L
sbag5
(g987
g7
Ntp2650
Rp2651
(dp2652
g991
g130
sg19
S'\x0ct\x04[^_\xc3'
p2653
sg21
L48715L
sg28
I4
sg22
Nsg23
L12L
sg24
(lp2654
g130
ag27
ag106
asg18
L48709L
sbag5
(g987
g7
Ntp2655
Rp2656
(dp2657
g991
g106
sg19
g2653
sg21
L48715L
sg28
I0
sg22
Nsg23
L12L
sg24
g2654
sg18
L48709L
sbag5
(g987
g7
Ntp2658
Rp2659
(dp2660
g991
g130
sg19
S'\n\x83\xc4\x1c[^_]\xc3'
p2661
sg21
L19654L
sg28
I0
sg22
Nsg23
L12L
sg24
(lp2662
g130
ag27
ag69
asg18
L19646L
sbag5
(g987
g7
Ntp2663
Rp2664
(dp2665
g991
g69
sg19
g2661
sg21
L19654L
sg28
I4
sg22
Nsg23
L12L
sg24
g2662
sg18
L19646L
sbag5
(g987
g7
Ntp2666
Rp2667
(dp2668
g991
g130
sg19
S'\n\x83\xc4,[^_]\xc3'
p2669
sg21
L35974L
sg28
I0
sg22
Nsg23
L12L
sg24
(lp2670
g130
ag27
ag69
asg18
L35966L
sbag5
(g987
g7
Ntp2671
Rp2672
(dp2673
g991
g69
sg19
g2669
sg21
L35974L
sg28
I4
sg22
Nsg23
L12L
sg24
g2670
sg18
L35966L
sbag5
(g987
g7
Ntp2674
Rp2675
(dp2676
g991
g130
sg19
S'\n\x83\xc4<[^_]\xc3'
p2677
sg21
L36136L
sg28
I0
sg22
Nsg23
L12L
sg24
(lp2678
g130
ag27
ag69
asg18
L36128L
sbag5
(g987
g7
Ntp2679
Rp2680
(dp2681
g991
g69
sg19
g2677
sg21
L36136L
sg28
I4
sg22
Nsg23
L12L
sg24
g2678
sg18
L36128L
sbag5
(g987
g7
Ntp2682
Rp2683
(dp2684
g991
g130
sg19
S'\x08\xa8\xff\xff\x83\xc4\x10[^_\xc3'
p2685
sg21
L30110L
sg28
I0
sg22
Nsg23
L8L
sg24
(lp2686
g130
asg18
L30100L
sbag5
(g987
g7
Ntp2687
Rp2688
(dp2689
g991
g130
sg19
S'\x08\x83\xc4\x0c[^_]\xc3'
p2690
sg21
L44366L
sg28
I0
sg22
Nsg23
L12L
sg24
(lp2691
g130
ag69
asg18
L44358L
sbag5
(g987
g7
Ntp2692
Rp2693
(dp2694
g991
g69
sg19
g2690
sg21
L44366L
sg28
I4
sg22
Nsg23
L12L
sg24
g2691
sg18
L44358L
sbag5
(g987
g7
Ntp2695
Rp2696
(dp2697
g991
g130
sg19
S'\x08\x83\xc4\x1c[^_]\xc3'
p2698
sg21
L43870L
sg28
I0
sg22
Nsg23
L12L
sg24
(lp2699
g130
ag69
asg18
L43862L
sbag5
(g987
g7
Ntp2700
Rp2701
(dp2702
g991
g69
sg19
g2698
sg21
L43870L
sg28
I4
sg22
Nsg23
L12L
sg24
g2699
sg18
L43862L
sbag5
(g987
g7
Ntp2703
Rp2704
(dp2705
g991
g130
sg19
S'\x08\x83\xc4L[^_]\xc3'
p2706
sg21
L75914L
sg28
I0
sg22
Nsg23
L12L
sg24
(lp2707
g130
ag69
asg18
L75906L
sbag5
(g987
g7
Ntp2708
Rp2709
(dp2710
g991
g69
sg19
g2706
sg21
L75914L
sg28
I4
sg22
Nsg23
L12L
sg24
g2707
sg18
L75906L
sbag5
(g987
g7
Ntp2711
Rp2712
(dp2713
g991
g130
sg19
S'\x08[^_\xc3'
p2714
sg21
L29587L
sg28
I0
sg22
Nsg23
L8L
sg24
(lp2715
g130
asg18
L29583L
sbag5
(g987
g7
Ntp2716
Rp2717
(dp2718
g991
g130
sg19
S'\r\x83\xc4\x0c[^_]\xc3'
p2719
sg21
L21386L
sg28
I4
sg22
Nsg23
L16L
sg24
(lp2720
g130
ag27
ag69
ag106
asg18
L21378L
sbag5
(g987
g7
Ntp2721
Rp2722
(dp2723
g991
g69
sg19
g2719
sg21
L21386L
sg28
I8
sg22
Nsg23
L16L
sg24
g2720
sg18
L21378L
sbag5
(g987
g7
Ntp2724
Rp2725
(dp2726
g991
g106
sg19
g2719
sg21
L21386L
sg28
I0
sg22
Nsg23
L16L
sg24
g2720
sg18
L21378L
sbag5
(g987
g7
Ntp2727
Rp2728
(dp2729
g991
g106
sg19
S'\r\x83\xc4D[^\xc3'
p2730
sg21
L66968L
sg28
I0
sg22
Nsg23
L8L
sg24
(lp2731
g27
ag106
asg18
L66962L
sbag5
(g987
g7
Ntp2732
Rp2733
(dp2734
g991
g130
sg19
g365
sg21
L82103L
sg28
I0
sg22
Nsg23
L12L
sg24
g366
sg18
L82095L
sbag5
(g987
g7
Ntp2735
Rp2736
(dp2737
g991
g69
sg19
g365
sg21
L82103L
sg28
I4
sg22
Nsg23
L12L
sg24
g366
sg18
L82095L
sbag5
(g987
g7
Ntp2738
Rp2739
(dp2740
g991
g130
sg19
g375
sg21
L22346L
sg28
I0
sg22
Nsg23
L12L
sg24
g376
sg18
L22335L
sbag5
(g987
g7
Ntp2741
Rp2742
(dp2743
g991
g69
sg19
g375
sg21
L22346L
sg28
I4
sg22
Nsg23
L12L
sg24
g376
sg18
L22335L
sbag5
(g987
g7
Ntp2744
Rp2745
(dp2746
g991
g49
sg19
g395
sg21
L47739L
sg28
I0
sg22
Nsg23
L12L
sg24
g396
sg18
L47728L
sbag5
(g987
g7
Ntp2747
Rp2748
(dp2749
g991
g106
sg19
g395
sg21
L47739L
sg28
I4
sg22
Nsg23
L12L
sg24
g396
sg18
L47728L
sbag5
(g987
g7
Ntp2750
Rp2751
(dp2752
g991
g49
sg19
S'\xee\x06\x00\x00\x83\xc4\x08[\xc3'
p2753
sg21
L7478L
sg28
I4
sg22
Nsg23
L12L
sg24
(lp2754
g49
asg18
L7470L
sbag5
(g987
g7
Ntp2755
Rp2756
(dp2757
g991
g49
sg19
g964
sg21
L45168L
sg28
I4
sg22
Nsg23
L16L
sg24
g965
sg18
L45160L
sbag5
(g987
g7
Ntp2758
Rp2759
(dp2760
g991
g106
sg19
g964
sg21
L45168L
sg28
I8
sg22
Nsg23
L16L
sg24
g965
sg18
L45160L
sbag5
(g987
g7
Ntp2761
Rp2762
(dp2763
g991
g69
sg19
S']\n\x0e\x14A\xc3'
p2764
sg21
L123090L
sg28
I0
sg22
Nsg23
L8L
sg24
(lp2765
g27
ag69
ag14
asg18
L123085L
sbag5
(g987
g7
Ntp2766
Rp2767
(dp2768
g991
g69
sg19
S']\n\x0e\x14F\xc3'
p2769
sg21
L118077L
sg28
I0
sg22
Nsg23
L8L
sg24
(lp2770
g27
ag69
ag14
asg18
L118072L
sbag5
(g987
g7
Ntp2771
Rp2772
(dp2773
g991
g69
sg19
S']\xc3'
p2774
sg21
L16360L
sg28
I0
sg22
Nsg23
L8L
sg24
(lp2775
g69
asg18
L16359L
sbag5
(g987
g7
Ntp2776
Rp2777
(dp2778
g991
g130
sg19
S'[\x0fE\xc2^_\xc3'
p2779
sg21
L59918L
sg28
I8
sg22
Nsg23
L16L
sg24
(lp2780
g130
ag49
ag106
asg18
L59912L
sbag5
(g987
g7
Ntp2781
Rp2782
(dp2783
g991
g49
sg19
g2779
sg21
L59918L
sg28
I0
sg22
Nsg23
L16L
sg24
g2780
sg18
L59912L
sbag5
(g987
g7
Ntp2784
Rp2785
(dp2786
g991
g106
sg19
g2779
sg21
L59918L
sg28
I4
sg22
Nsg23
L16L
sg24
g2780
sg18
L59912L
sbag5
(g987
g7
Ntp2787
Rp2788
(dp2789
g991
g130
sg19
S'[\xb8\xff\xff\xff\xff^_\xc3'
p2790
sg21
L29616L
sg28
I8
sg22
Nsg23
L16L
sg24
(lp2791
g130
ag27
ag49
ag106
asg18
L29608L
sbag5
(g987
g7
Ntp2792
Rp2793
(dp2794
g991
g49
sg19
g2790
sg21
L29616L
sg28
I0
sg22
Nsg23
L16L
sg24
g2791
sg18
L29608L
sbag5
(g987
g7
Ntp2795
Rp2796
(dp2797
g991
g106
sg19
g2790
sg21
L29616L
sg28
I4
sg22
Nsg23
L16L
sg24
g2791
sg18
L29608L
sbag5
(g987
g7
Ntp2798
Rp2799
(dp2800
g991
g130
sg19
g726
sg21
L81304L
sg28
I8
sg22
Nsg23
L20L
sg24
g727
sg18
L81295L
sbag5
(g987
g7
Ntp2801
Rp2802
(dp2803
g991
g69
sg19
g726
sg21
L81304L
sg28
I12
sg22
Nsg23
L20L
sg24
g727
sg18
L81295L
sbag5
(g987
g7
Ntp2804
Rp2805
(dp2806
g991
g49
sg19
g726
sg21
L81304L
sg28
I0
sg22
Nsg23
L20L
sg24
g727
sg18
L81295L
sbag5
(g987
g7
Ntp2807
Rp2808
(dp2809
g991
g106
sg19
g726
sg21
L81304L
sg28
I4
sg22
Nsg23
L20L
sg24
g727
sg18
L81295L
sbag5
(g987
g7
Ntp2810
Rp2811
(dp2812
g991
g130
sg19
g740
sg21
L30309L
sg28
I8
sg22
Nsg23
L16L
sg24
g741
sg18
L30301L
sbag5
(g987
g7
Ntp2813
Rp2814
(dp2815
g991
g49
sg19
g740
sg21
L30309L
sg28
I0
sg22
Nsg23
L16L
sg24
g741
sg18
L30301L
sbag5
(g987
g7
Ntp2816
Rp2817
(dp2818
g991
g106
sg19
g740
sg21
L30309L
sg28
I4
sg22
Nsg23
L16L
sg24
g741
sg18
L30301L
sbag5
(g987
g7
Ntp2819
Rp2820
(dp2821
g991
g130
sg19
S'[\x89\xe8^_]\xc3'
p2822
sg21
L82772L
sg28
I8
sg22
Nsg23
L20L
sg24
(lp2823
g130
ag27
ag69
ag49
ag106
asg18
L82766L
sbag5
(g987
g7
Ntp2824
Rp2825
(dp2826
g991
g69
sg19
g2822
sg21
L82772L
sg28
I12
sg22
Nsg23
L20L
sg24
g2823
sg18
L82766L
sbag5
(g987
g7
Ntp2827
Rp2828
(dp2829
g991
g49
sg19
g2822
sg21
L82772L
sg28
I0
sg22
Nsg23
L20L
sg24
g2823
sg18
L82766L
sbag5
(g987
g7
Ntp2830
Rp2831
(dp2832
g991
g106
sg19
g2822
sg21
L82772L
sg28
I4
sg22
Nsg23
L20L
sg24
g2823
sg18
L82766L
sbag5
(g987
g7
Ntp2833
Rp2834
(dp2835
g991
g130
sg19
S'[\x89\xf8^_]\xc3'
p2836
sg21
L43574L
sg28
I8
sg22
Nsg23
L20L
sg24
(lp2837
g130
ag27
ag69
ag49
ag106
asg18
L43568L
sbag5
(g987
g7
Ntp2838
Rp2839
(dp2840
g991
g69
sg19
g2836
sg21
L43574L
sg28
I12
sg22
Nsg23
L20L
sg24
g2837
sg18
L43568L
sbag5
(g987
g7
Ntp2841
Rp2842
(dp2843
g991
g49
sg19
g2836
sg21
L43574L
sg28
I0
sg22
Nsg23
L20L
sg24
g2837
sg18
L43568L
sbag5
(g987
g7
Ntp2844
Rp2845
(dp2846
g991
g106
sg19
g2836
sg21
L43574L
sg28
I4
sg22
Nsg23
L20L
sg24
g2837
sg18
L43568L
sbag5
(g987
g7
Ntp2847
Rp2848
(dp2849
g991
g130
sg19
S'[\xf7\xd8^_]\xc3'
p2850
sg21
L83591L
sg28
I8
sg22
Nsg23
L20L
sg24
(lp2851
g130
ag27
ag69
ag49
ag106
asg18
L83585L
sbag5
(g987
g7
Ntp2852
Rp2853
(dp2854
g991
g69
sg19
g2850
sg21
L83591L
sg28
I12
sg22
Nsg23
L20L
sg24
g2851
sg18
L83585L
sbag5
(g987
g7
Ntp2855
Rp2856
(dp2857
g991
g49
sg19
g2850
sg21
L83591L
sg28
I0
sg22
Nsg23
L20L
sg24
g2851
sg18
L83585L
sbag5
(g987
g7
Ntp2858
Rp2859
(dp2860
g991
g106
sg19
g2850
sg21
L83591L
sg28
I4
sg22
Nsg23
L20L
sg24
g2851
sg18
L83585L
sbag5
(g987
g7
Ntp2861
Rp2862
(dp2863
g991
g49
sg19
S'[\n\x0e\x14A\xc3'
p2864
sg21
L126856L
sg28
I0
sg22
Nsg23
L8L
sg24
(lp2865
g27
ag49
asg18
L126851L
sbag5
(g987
g7
Ntp2866
Rp2867
(dp2868
g991
g49
sg19
S'[^\x8d\x04\xc2\xc3'
p2869
sg21
L47739L
sg28
I0
sg22
Nsg23
L12L
sg24
(lp2870
g27
ag49
ag106
asg18
L47734L
sbag5
(g987
g7
Ntp2871
Rp2872
(dp2873
g991
g106
sg19
g2869
sg21
L47739L
sg28
I4
sg22
Nsg23
L12L
sg24
g2870
sg18
L47734L
sbag5
(g987
g7
Ntp2874
Rp2875
(dp2876
g991
g49
sg19
g754
sg21
L16131L
sg28
I0
sg22
Nsg23
L12L
sg24
g755
sg18
L16124L
sbag5
(g987
g7
Ntp2877
Rp2878
(dp2879
g991
g106
sg19
g754
sg21
L16131L
sg28
I4
sg22
Nsg23
L12L
sg24
g755
sg18
L16124L
sbag5
(g987
g7
Ntp2880
Rp2881
(dp2882
g991
g130
sg19
g969
sg21
L59873L
sg28
I8
sg22
Nsg23
L16L
sg24
g970
sg18
L59867L
sbag5
(g987
g7
Ntp2883
Rp2884
(dp2885
g991
g49
sg19
g969
sg21
L59873L
sg28
I0
sg22
Nsg23
L16L
sg24
g970
sg18
L59867L
sbag5
(g987
g7
Ntp2886
Rp2887
(dp2888
g991
g106
sg19
g969
sg21
L59873L
sg28
I4
sg22
Nsg23
L16L
sg24
g970
sg18
L59867L
sbag5
(g987
g7
Ntp2889
Rp2890
(dp2891
g991
g130
sg19
S'[^_]\xc3'
p2892
sg21
L16360L
sg28
I8
sg22
Nsg23
L20L
sg24
(lp2893
g130
ag69
ag49
ag106
asg18
L16356L
sbag5
(g987
g7
Ntp2894
Rp2895
(dp2896
g991
g69
sg19
g2892
sg21
L16360L
sg28
I12
sg22
Nsg23
L20L
sg24
g2893
sg18
L16356L
sbag5
(g987
g7
Ntp2897
Rp2898
(dp2899
g991
g49
sg19
g2892
sg21
L16360L
sg28
I0
sg22
Nsg23
L20L
sg24
g2893
sg18
L16356L
sbag5
(g987
g7
Ntp2900
Rp2901
(dp2902
g991
g106
sg19
g2892
sg21
L16360L
sg28
I4
sg22
Nsg23
L20L
sg24
g2893
sg18
L16356L
sbag5
(g987
g7
Ntp2903
Rp2904
(dp2905
g991
g130
sg19
S'[^_\xc3'
p2906
sg21
L16941L
sg28
I8
sg22
Nsg23
L16L
sg24
(lp2907
g130
ag49
ag106
asg18
L16938L
sbag5
(g987
g7
Ntp2908
Rp2909
(dp2910
g991
g49
sg19
g2906
sg21
L16941L
sg28
I0
sg22
Nsg23
L16L
sg24
g2907
sg18
L16938L
sbag5
(g987
g7
Ntp2911
Rp2912
(dp2913
g991
g106
sg19
g2906
sg21
L16941L
sg28
I4
sg22
Nsg23
L16L
sg24
g2907
sg18
L16938L
sbag5
(g987
g7
Ntp2914
Rp2915
(dp2916
g991
g130
sg19
S'[^_\x0f\x94\xc0\xc3'
p2917
sg21
L48725L
sg28
I8
sg22
Nsg23
L16L
sg24
(lp2918
g130
ag27
ag49
ag106
asg18
L48719L
sbag5
(g987
g7
Ntp2919
Rp2920
(dp2921
g991
g49
sg19
g2917
sg21
L48725L
sg28
I0
sg22
Nsg23
L16L
sg24
g2918
sg18
L48719L
sbag5
(g987
g7
Ntp2922
Rp2923
(dp2924
g991
g106
sg19
g2917
sg21
L48725L
sg28
I4
sg22
Nsg23
L16L
sg24
g2918
sg18
L48719L
sbag5
(g987
g7
Ntp2925
Rp2926
(dp2927
g991
g130
sg19
S'[^_\x0f\x95\xc0\xc3'
p2928
sg21
L16953L
sg28
I8
sg22
Nsg23
L16L
sg24
(lp2929
g130
ag27
ag49
ag106
asg18
L16947L
sbag5
(g987
g7
Ntp2930
Rp2931
(dp2932
g991
g49
sg19
g2928
sg21
L16953L
sg28
I0
sg22
Nsg23
L16L
sg24
g2929
sg18
L16947L
sbag5
(g987
g7
Ntp2933
Rp2934
(dp2935
g991
g106
sg19
g2928
sg21
L16953L
sg28
I4
sg22
Nsg23
L16L
sg24
g2929
sg18
L16947L
sbag5
(g987
g7
Ntp2936
Rp2937
(dp2938
g991
g49
sg19
S'[^\xc3'
p2939
sg21
L16108L
sg28
I0
sg22
Nsg23
L12L
sg24
(lp2940
g49
ag106
asg18
L16106L
sbag5
(g987
g7
Ntp2941
Rp2942
(dp2943
g991
g106
sg19
g2939
sg21
L16108L
sg28
I4
sg22
Nsg23
L12L
sg24
g2940
sg18
L16106L
sbag5
(g987
g7
Ntp2944
Rp2945
(dp2946
g991
g130
sg19
S'[\xf3\xa6^\x0f\x95\xc0_\xc3'
p2947
sg21
L16930L
sg28
I8
sg22
Nsg23
L16L
sg24
(lp2948
g130
ag27
ag49
ag106
ag14
asg18
L16922L
sbag5
(g987
g7
Ntp2949
Rp2950
(dp2951
g991
g49
sg19
g2947
sg21
L16930L
sg28
I0
sg22
Nsg23
L16L
sg24
g2948
sg18
L16922L
sbag5
(g987
g7
Ntp2952
Rp2953
(dp2954
g991
g106
sg19
g2947
sg21
L16930L
sg28
I4
sg22
Nsg23
L16L
sg24
g2948
sg18
L16922L
sbag5
(g987
g7
Ntp2955
Rp2956
(dp2957
g991
g49
sg19
S'[\xc3'
p2958
sg21
L7478L
sg28
I0
sg22
Nsg23
L8L
sg24
(lp2959
g49
asg18
L7477L
sbag5
(g987
g7
Ntp2960
Rp2961
(dp2962
g991
g130
sg19
g759
sg21
L47491L
sg28
I8
sg22
Nsg23
L16L
sg24
g760
sg18
L47486L
sbag5
(g987
g7
Ntp2963
Rp2964
(dp2965
g991
g49
sg19
g759
sg21
L47491L
sg28
I0
sg22
Nsg23
L16L
sg24
g760
sg18
L47486L
sbag5
(g987
g7
Ntp2966
Rp2967
(dp2968
g991
g106
sg19
g759
sg21
L47491L
sg28
I4
sg22
Nsg23
L16L
sg24
g760
sg18
L47486L
sbag5
(g987
g7
Ntp2969
Rp2970
(dp2971
g991
g14
sg19
S'Y\x01\x89\xc8\x89\x1e\x0f\xb6Q\x01\x84\xd2u\x1b[^\xc3'
p2972
sg21
L46240L
sg28
I0
sg22
Nsg23
L8L
sg24
(lp2973
g17
ag14
asg18
L46224L
sbag5
(g987
g7
Ntp2974
Rp2975
(dp2976
g991
g130
sg19
g974
sg21
L59873L
sg28
I0
sg22
Nsg23
L8L
sg24
g975
sg18
L59869L
sbag5
(g987
g7
Ntp2977
Rp2978
(dp2979
g991
g130
sg19
S'_\x0ct\x04[^_\xc3'
p2980
sg21
L48715L
sg28
I8
sg22
Nsg23
L16L
sg24
(lp2981
g130
ag27
ag106
asg18
L48708L
sbag5
(g987
g7
Ntp2982
Rp2983
(dp2984
g991
g106
sg19
g2980
sg21
L48715L
sg28
I4
sg22
Nsg23
L16L
sg24
g2981
sg18
L48708L
sbag5
(g987
g7
Ntp2985
Rp2986
(dp2987
g991
g130
sg19
S'_\n\x0e\x14A\xc3'
p2988
sg21
L117166L
sg28
I0
sg22
Nsg23
L8L
sg24
(lp2989
g130
ag27
ag14
asg18
L117161L
sbag5
(g987
g7
Ntp2990
Rp2991
(dp2992
g991
g130
sg19
S'_\n\x0e\x14C\xc3'
p2993
sg21
L134405L
sg28
I0
sg22
Nsg23
L8L
sg24
(lp2994
g130
ag27
ag14
asg18
L134400L
sbag5
(g987
g7
Ntp2995
Rp2996
(dp2997
g991
g130
sg19
S'_]\xc3'
p2998
sg21
L16360L
sg28
I0
sg22
Nsg23
L12L
sg24
(lp2999
g130
ag69
asg18
L16358L
sbag5
(g987
g7
Ntp3000
Rp3001
(dp3002
g991
g69
sg19
g2998
sg21
L16360L
sg28
I4
sg22
Nsg23
L12L
sg24
g2999
sg18
L16358L
sbag5
(g987
g7
Ntp3003
Rp3004
(dp3005
g991
g130
sg19
S'_\xc3'
p3006
sg21
L16930L
sg28
I0
sg22
Nsg23
L8L
sg24
(lp3007
g130
asg18
L16929L
sbag5
(g987
g7
Ntp3008
Rp3009
(dp3010
g991
g130
sg19
S'_\x0f\x94\xc0\xc3'
p3011
sg21
L48725L
sg28
I0
sg22
Nsg23
L8L
sg24
(lp3012
g130
ag27
asg18
L48721L
sbag5
(g987
g7
Ntp3013
Rp3014
(dp3015
g991
g130
sg19
S'_\x0f\x95\xc0\xc3'
p3016
sg21
L16953L
sg28
I0
sg22
Nsg23
L8L
sg24
(lp3017
g130
ag27
asg18
L16949L
sbag5
(g987
g7
Ntp3018
Rp3019
(dp3020
g991
g17
sg19
S'Z\n\x0e\x14A\xc3'
p3021
sg21
L119158L
sg28
I0
sg22
Nsg23
L8L
sg24
(lp3022
g27
ag17
ag14
asg18
L119153L
sbag5
(g987
g7
Ntp3023
Rp3024
(dp3025
g991
g17
sg19
S'Z\x0e0l\n\x0e\x14C\xc3'
p3026
sg21
L116325L
sg28
I0
sg22
Nsg23
L4L
sg24
(lp3027
g27
ag17
asg18
L116317L
sbag5
(g987
g7
Ntp3028
Rp3029
(dp3030
g991
g106
sg19
S'^\x8d\x04\xc2\xc3'
p3031
sg21
L47739L
sg28
I0
sg22
Nsg23
L8L
sg24
(lp3032
g27
ag106
asg18
L47735L
sbag5
(g987
g7
Ntp3033
Rp3034
(dp3035
g991
g106
sg19
S'^\n\x0e\x14A\xc3'
p3036
sg21
L114292L
sg28
I0
sg22
Nsg23
L8L
sg24
(lp3037
g27
ag106
ag14
asg18
L114287L
sbag5
(g987
g7
Ntp3038
Rp3039
(dp3040
g991
g106
sg19
g764
sg21
L16131L
sg28
I0
sg22
Nsg23
L8L
sg24
g765
sg18
L16125L
sbag5
(g987
g7
Ntp3041
Rp3042
(dp3043
g991
g130
sg19
S'^_\x0fE\xc2\xc3'
p3044
sg21
L59873L
sg28
I4
sg22
Nsg23
L12L
sg24
(lp3045
g130
ag106
asg18
L59868L
sbag5
(g987
g7
Ntp3046
Rp3047
(dp3048
g991
g106
sg19
g3044
sg21
L59873L
sg28
I0
sg22
Nsg23
L12L
sg24
g3045
sg18
L59868L
sbag5
(g987
g7
Ntp3049
Rp3050
(dp3051
g991
g130
sg19
S'^_]\xc3'
p3052
sg21
L16360L
sg28
I4
sg22
Nsg23
L16L
sg24
(lp3053
g130
ag69
ag106
asg18
L16357L
sbag5
(g987
g7
Ntp3054
Rp3055
(dp3056
g991
g69
sg19
g3052
sg21
L16360L
sg28
I8
sg22
Nsg23
L16L
sg24
g3053
sg18
L16357L
sbag5
(g987
g7
Ntp3057
Rp3058
(dp3059
g991
g106
sg19
g3052
sg21
L16360L
sg28
I0
sg22
Nsg23
L16L
sg24
g3053
sg18
L16357L
sbag5
(g987
g7
Ntp3060
Rp3061
(dp3062
g991
g130
sg19
S'^_\xc3'
p3063
sg21
L16941L
sg28
I4
sg22
Nsg23
L12L
sg24
(lp3064
g130
ag106
asg18
L16939L
sbag5
(g987
g7
Ntp3065
Rp3066
(dp3067
g991
g106
sg19
g3063
sg21
L16941L
sg28
I0
sg22
Nsg23
L12L
sg24
g3064
sg18
L16939L
sbag5
(g987
g7
Ntp3068
Rp3069
(dp3070
g991
g130
sg19
S'^_\x0f\x94\xc0\xc3'
p3071
sg21
L48725L
sg28
I4
sg22
Nsg23
L12L
sg24
(lp3072
g130
ag27
ag106
asg18
L48720L
sbag5
(g987
g7
Ntp3073
Rp3074
(dp3075
g991
g106
sg19
g3071
sg21
L48725L
sg28
I0
sg22
Nsg23
L12L
sg24
g3072
sg18
L48720L
sbag5
(g987
g7
Ntp3076
Rp3077
(dp3078
g991
g130
sg19
S'^_\x0f\x95\xc0\xc3'
p3079
sg21
L16953L
sg28
I4
sg22
Nsg23
L12L
sg24
(lp3080
g130
ag27
ag106
asg18
L16948L
sbag5
(g987
g7
Ntp3081
Rp3082
(dp3083
g991
g106
sg19
g3079
sg21
L16953L
sg28
I0
sg22
Nsg23
L12L
sg24
g3080
sg18
L16948L
sbag5
(g987
g7
Ntp3084
Rp3085
(dp3086
g991
g106
sg19
S'^\xc3'
p3087
sg21
L16108L
sg28
I0
sg22
Nsg23
L8L
sg24
(lp3088
g106
asg18
L16107L
sbag5
(g987
g7
Ntp3089
Rp3090
(dp3091
g991
g130
sg19
S'^\x0f\x95\xc0_\xc3'
p3092
sg21
L16930L
sg28
I4
sg22
Nsg23
L12L
sg24
(lp3093
g130
ag27
ag106
asg18
L16925L
sbag5
(g987
g7
Ntp3094
Rp3095
(dp3096
g991
g106
sg19
g3092
sg21
L16930L
sg28
I0
sg22
Nsg23
L12L
sg24
g3093
sg18
L16925L
sbag5
(g987
g7
Ntp3097
Rp3098
(dp3099
g991
g130
sg19
S'a\xfc\xc3'
p3100
sg21
L13139L
sg28
I0
sg22
Nsg23
L36L
sg24
(lp3101
g130
ag27
ag69
ag17
ag49
ag106
ag14
asg18
L13137L
sbag5
(g987
g7
Ntp3102
Rp3103
(dp3104
g991
g27
sg19
g3100
sg21
L13139L
sg28
I28
sg22
Nsg23
L36L
sg24
g3101
sg18
L13137L
sbag5
(g987
g7
Ntp3105
Rp3106
(dp3107
g991
g69
sg19
g3100
sg21
L13139L
sg28
I8
sg22
Nsg23
L36L
sg24
g3101
sg18
L13137L
sbag5
(g987
g7
Ntp3108
Rp3109
(dp3110
g991
g17
sg19
g3100
sg21
L13139L
sg28
I20
sg22
Nsg23
L36L
sg24
g3101
sg18
L13137L
sbag5
(g987
g7
Ntp3111
Rp3112
(dp3113
g991
g49
sg19
g3100
sg21
L13139L
sg28
I16
sg22
Nsg23
L36L
sg24
g3101
sg18
L13137L
sbag5
(g987
g7
Ntp3114
Rp3115
(dp3116
g991
g106
sg19
g3100
sg21
L13139L
sg28
I4
sg22
Nsg23
L36L
sg24
g3101
sg18
L13137L
sbag5
(g987
g7
Ntp3117
Rp3118
(dp3119
g991
g14
sg19
g3100
sg21
L13139L
sg28
I24
sg22
Nsg23
L36L
sg24
g3101
sg18
L13137L
sbag5
(g987
g7
Ntp3120
Rp3121
(dp3122
g991
g130
sg19
S'a\n\x0e\x14A\xc3'
p3123
sg21
L133285L
sg28
I0
sg22
Nsg23
L36L
sg24
(lp3124
g130
ag27
ag69
ag17
ag49
ag106
ag14
asg18
L133280L
sbag5
(g987
g7
Ntp3125
Rp3126
(dp3127
g991
g69
sg19
g3123
sg21
L133285L
sg28
I8
sg22
Nsg23
L36L
sg24
g3124
sg18
L133280L
sbag5
(g987
g7
Ntp3128
Rp3129
(dp3130
g991
g17
sg19
g3123
sg21
L133285L
sg28
I20
sg22
Nsg23
L36L
sg24
g3124
sg18
L133280L
sbag5
(g987
g7
Ntp3131
Rp3132
(dp3133
g991
g49
sg19
g3123
sg21
L133285L
sg28
I16
sg22
Nsg23
L36L
sg24
g3124
sg18
L133280L
sbag5
(g987
g7
Ntp3134
Rp3135
(dp3136
g991
g106
sg19
g3123
sg21
L133285L
sg28
I4
sg22
Nsg23
L36L
sg24
g3124
sg18
L133280L
sbag5
(g987
g7
Ntp3137
Rp3138
(dp3139
g991
g49
sg19
S'\x0e\x83\xc4\x04[^\xc3'
p3140
sg21
L45137L
sg28
I0
sg22
Nsg23
L12L
sg24
(lp3141
g49
ag106
asg18
L45131L
sbag5
(g987
g7
Ntp3142
Rp3143
(dp3144
g991
g106
sg19
g3140
sg21
L45137L
sg28
I4
sg22
Nsg23
L12L
sg24
g3141
sg18
L45131L
sbag5
(g987
g7
Ntp3145
Rp3146
(dp3147
g991
g49
sg19
S'\x06\x00\x00\x83\xc4\x08[\xc3'
p3148
sg21
L7478L
sg28
I4
sg22
Nsg23
L12L
sg24
(lp3149
g49
asg18
L7471L
sbag5
(g987
g7
Ntp3150
Rp3151
(dp3152
g991
g49
sg19
S'\x06\x83\xc4\x14[^\xc3'
p3153
sg21
L47428L
sg28
I16
sg22
Nsg23
L28L
sg24
(lp3154
g49
ag106
asg18
L47422L
sbag5
(g987
g7
Ntp3155
Rp3156
(dp3157
g991
g106
sg19
g3153
sg21
L47428L
sg28
I20
sg22
Nsg23
L28L
sg24
g3154
sg18
L47422L
sbag5
(g987
g7
Ntp3158
Rp3159
(dp3160
g991
g49
sg19
S'\x06\x83\xc4\x04[^\xc3'
p3161
sg21
L76218L
sg28
I0
sg22
Nsg23
L12L
sg24
(lp3162
g49
ag106
asg18
L76212L
sbag5
(g987
g7
Ntp3163
Rp3164
(dp3165
g991
g106
sg19
g3161
sg21
L76218L
sg28
I4
sg22
Nsg23
L12L
sg24
g3162
sg18
L76212L
sbag5
(g987
g7
Ntp3166
Rp3167
(dp3168
g991
g49
sg19
S'\x16\x83\xc4\x04[^\x8d\x04\xc2\xc3'
p3169
sg21
L47739L
sg28
I0
sg22
Nsg23
L12L
sg24
(lp3170
g27
ag49
ag106
asg18
L47730L
sbag5
(g987
g7
Ntp3171
Rp3172
(dp3173
g991
g106
sg19
g3169
sg21
L47739L
sg28
I4
sg22
Nsg23
L12L
sg24
g3170
sg18
L47730L
sbag5
(g987
g7
Ntp3174
Rp3175
(dp3176
g991
g69
sg19
S'\x9c\x00\x00\x00[^_]\xc3'
p3177
sg21
L22346L
sg28
I0
sg22
Nsg23
L8L
sg24
(lp3178
g130
ag69
asg18
L22338L
sbag5
(g987
g7
Ntp3179
Rp3180
(dp3181
g991
g69
sg19
S'\xc0[^_]\xc3'
p3182
sg21
L47912L
sg28
I0
sg22
Nsg23
L8L
sg24
(lp3183
g69
asg18
L47907L
sbag5
(g987
g7
Ntp3184
Rp3185
(dp3186
g991
g130
sg19
S'\xc0[\xf7\xd8^_]\xc3'
p3187
sg21
L83591L
sg28
I4
sg22
Nsg23
L16L
sg24
(lp3188
g130
ag69
ag106
asg18
L83584L
sbag5
(g987
g7
Ntp3189
Rp3190
(dp3191
g991
g69
sg19
g3187
sg21
L83591L
sg28
I8
sg22
Nsg23
L16L
sg24
g3188
sg18
L83584L
sbag5
(g987
g7
Ntp3192
Rp3193
(dp3194
g991
g106
sg19
g3187
sg21
L83591L
sg28
I0
sg22
Nsg23
L16L
sg24
g3188
sg18
L83584L
sbag5
(g987
g7
Ntp3195
Rp3196
(dp3197
g991
g130
sg19
S'\xf3\xa6^\x0f\x95\xc0_\xc3'
p3198
sg21
L16930L
sg28
I4
sg22
Nsg23
L12L
sg24
(lp3199
g130
ag27
ag106
ag14
asg18
L16923L
sbag5
(g987
g7
Ntp3200
Rp3201
(dp3202
g991
g106
sg19
g3198
sg21
L16930L
sg28
I0
sg22
Nsg23
L12L
sg24
g3199
sg18
L16923L
sbag5
(g987
g7
Ntp3203
Rp3204
(dp3205
g991
g130
sg19
S'\xd2\x83\xc4\x1c[^_]\xc3'
p3206
sg21
L89327L
sg28
I0
sg22
Nsg23
L12L
sg24
(lp3207
g130
ag69
asg18
L89319L
sbag5
(g987
g7
Ntp3208
Rp3209
(dp3210
g991
g69
sg19
g3206
sg21
L89327L
sg28
I4
sg22
Nsg23
L12L
sg24
g3207
sg18
L89319L
sbag5
(g987
g7
Ntp3211
Rp3212
(dp3213
g991
g49
sg19
S'\xc0\x83\xe0\xe0\x83\xc0t\x88B\t[\xc3'
p3214
sg21
L45721L
sg28
I0
sg22
Nsg23
L8L
sg24
(lp3215
g49
asg18
L45710L
sbag5
(g987
g7
Ntp3216
Rp3217
(dp3218
g991
g49
sg19
S'\xc0\x83\xe0\xb5\x83\xc0x\x88B\t[\xc3'
p3219
sg21
L45770L
sg28
I0
sg22
Nsg23
L8L
sg24
(lp3220
g49
asg18
L45759L
sbag5
(g987
g7
Ntp3221
Rp3222
(dp3223
g991
g49
sg19
S'\xc0t\x88B\t[\xc3'
p3224
sg21
L45721L
sg28
I0
sg22
Nsg23
L8L
sg24
(lp3225
g49
asg18
L45715L
sbag5
(g987
g7
Ntp3226
Rp3227
(dp3228
g991
g49
sg19
S'\xd2u\x1b[^\xc3'
p3229
sg21
L46240L
sg28
I0
sg22
Nsg23
L12L
sg24
(lp3230
g49
ag106
asg18
L46235L
sbag5
(g987
g7
Ntp3231
Rp3232
(dp3233
g991
g106
sg19
g3229
sg21
L46240L
sg28
I4
sg22
Nsg23
L12L
sg24
g3230
sg18
L46235L
sbag5
(g987
g7
Ntp3234
Rp3235
(dp3236
g991
g130
sg19
S'\xc0uK[^_\xc3'
p3237
sg21
L44658L
sg28
I4
sg22
Nsg23
L12L
sg24
(lp3238
g130
ag106
asg18
L44652L
sbag5
(g987
g7
Ntp3239
Rp3240
(dp3241
g991
g106
sg19
g3237
sg21
L44658L
sg28
I0
sg22
Nsg23
L12L
sg24
g3238
sg18
L44652L
sbag5
(g987
g7
Ntp3242
Rp3243
(dp3244
g991
g49
sg19
S'\xc0u\x04\x85\xf6u\x1f\x83\xc4\x04[^\xc3'
p3245
sg21
L76346L
sg28
I4
sg22
Nsg23
L16L
sg24
(lp3246
g27
ag17
ag49
ag106
asg18
L76334L
sbag5
(g987
g7
Ntp3247
Rp3248
(dp3249
g991
g106
sg19
g3245
sg21
L76346L
sg28
I8
sg22
Nsg23
L16L
sg24
g3246
sg18
L76334L
sbag5
(g987
g7
Ntp3250
Rp3251
(dp3252
g991
g49
sg19
S'\xc0t\x05\xe8\xee\x06\x00\x00\x83\xc4\x08[\xc3'
p3253
sg21
L7478L
sg28
I4
sg22
Nsg23
L12L
sg24
(lp3254
g49
asg18
L7466L
sbag5
(g987
g7
Ntp3255
Rp3256
(dp3257
g991
g130
sg19
S'\xc0t\x15\x83\xc4\x0c[^_]\xc3'
p3258
sg21
L41132L
sg28
I4
sg22
Nsg23
L16L
sg24
(lp3259
g130
ag27
ag69
ag106
asg18
L41122L
sbag5
(g987
g7
Ntp3260
Rp3261
(dp3262
g991
g69
sg19
g3258
sg21
L41132L
sg28
I8
sg22
Nsg23
L16L
sg24
g3259
sg18
L41122L
sbag5
(g987
g7
Ntp3263
Rp3264
(dp3265
g991
g106
sg19
g3258
sg21
L41132L
sg28
I0
sg22
Nsg23
L16L
sg24
g3259
sg18
L41122L
sbag5
(g987
g7
Ntp3266
Rp3267
(dp3268
g991
g49
sg19
S'\xd2u\xec[\xc3'
p3269
sg21
L45087L
sg28
I0
sg22
Nsg23
L8L
sg24
(lp3270
g49
asg18
L45083L
sbag5
(g987
g7
Ntp3271
Rp3272
(dp3273
g991
g49
sg19
S'\xd2u\xe7\x89\xf0[^\xc3'
p3274
sg21
L49525L
sg28
I0
sg22
Nsg23
L12L
sg24
(lp3275
g27
ag49
ag106
asg18
L49518L
sbag5
(g987
g7
Ntp3276
Rp3277
(dp3278
g991
g106
sg19
g3274
sg21
L49525L
sg28
I4
sg22
Nsg23
L12L
sg24
g3275
sg18
L49518L
sbag5
(g987
g7
Ntp3279
Rp3280
(dp3281
g991
g130
sg19
S'\xc0t\x0f\x83\xc4\x0c[^_]\xc3'
p3282
sg21
L40440L
sg28
I4
sg22
Nsg23
L16L
sg24
(lp3283
g130
ag27
ag69
ag106
asg18
L40430L
sbag5
(g987
g7
Ntp3284
Rp3285
(dp3286
g991
g69
sg19
g3282
sg21
L40440L
sg28
I8
sg22
Nsg23
L16L
sg24
g3283
sg18
L40430L
sbag5
(g987
g7
Ntp3287
Rp3288
(dp3289
g991
g106
sg19
g3282
sg21
L40440L
sg28
I0
sg22
Nsg23
L16L
sg24
g3283
sg18
L40430L
sbag5
(g987
g7
Ntp3290
Rp3291
(dp3292
g991
g49
sg19
S'\xd1r\xf31\xc0\x83\xc4\x04[^\xc3'
p3293
sg21
L49252L
sg28
I4
sg22
Nsg23
L16L
sg24
(lp3294
g27
ag49
ag106
asg18
L49242L
sbag5
(g987
g7
Ntp3295
Rp3296
(dp3297
g991
g106
sg19
g3293
sg21
L49252L
sg28
I8
sg22
Nsg23
L16L
sg24
g3294
sg18
L49242L
sbag5
(g987
g7
Ntp3298
Rp3299
(dp3300
g991
g130
sg19
S'\xc09_\x0ct\x04[^_\xc3'
p3301
sg21
L48715L
sg28
I4
sg22
Nsg23
L12L
sg24
(lp3302
g130
ag27
ag106
asg18
L48706L
sbag5
(g987
g7
Ntp3303
Rp3304
(dp3305
g991
g106
sg19
g3301
sg21
L48715L
sg28
I0
sg22
Nsg23
L12L
sg24
g3302
sg18
L48706L
sbag5
(g987
g7
Ntp3306
Rp3307
(dp3308
g991
g106
sg19
S'\xd2\xfe\xff\x83\xc4\x10\x83\xc4\x04[^\xc3'
p3309
sg21
L84945L
sg28
I0
sg22
Nsg23
L8L
sg24
(lp3310
g27
ag17
ag106
asg18
L84934L
sbag5
(g987
g7
Ntp3311
Rp3312
(dp3313
g991
g49
sg19
S'\xc1\xfe\xff\x83\xc4\x18[\xc3'
p3314
sg21
L89758L
sg28
I24
sg22
Nsg23
L32L
sg24
(lp3315
g49
ag106
asg18
L89751L
sbag5
(g987
g7
Ntp3316
Rp3317
(dp3318
g991
g49
sg19
S'f\xc1\xfe\xff\x83\xc4\x18[\xc3'
p3319
sg21
L89758L
sg28
I24
sg22
Nsg23
L32L
sg24
(lp3320
g49
ag106
asg18
L89750L
sbag5
(g987
g7
Ntp3321
Rp3322
(dp3323
g991
g69
sg19
S'\x1c1\xc0[^_]\xc3'
p3324
sg21
L47912L
sg28
I0
sg22
Nsg23
L8L
sg24
(lp3325
g27
ag69
asg18
L47905L
sbag5
(g987
g7
Ntp3326
Rp3327
(dp3328
g991
g130
sg19
S'\x1c[\x89\xf8^_]\xc3'
p3329
sg21
L43574L
sg28
I4
sg22
Nsg23
L16L
sg24
(lp3330
g130
ag27
ag69
ag106
asg18
L43567L
sbag5
(g987
g7
Ntp3331
Rp3332
(dp3333
g991
g69
sg19
g3329
sg21
L43574L
sg28
I8
sg22
Nsg23
L16L
sg24
g3330
sg18
L43567L
sbag5
(g987
g7
Ntp3334
Rp3335
(dp3336
g991
g106
sg19
g3329
sg21
L43574L
sg28
I0
sg22
Nsg23
L16L
sg24
g3330
sg18
L43567L
sbag5
(g987
g7
Ntp3337
Rp3338
(dp3339
g991
g130
sg19
S'\x1c[^_]\xc3'
p3340
sg21
L17853L
sg28
I4
sg22
Nsg23
L16L
sg24
(lp3341
g130
ag27
ag69
ag106
asg18
L17848L
sbag5
(g987
g7
Ntp3342
Rp3343
(dp3344
g991
g69
sg19
g3340
sg21
L17853L
sg28
I8
sg22
Nsg23
L16L
sg24
g3341
sg18
L17848L
sbag5
(g987
g7
Ntp3345
Rp3346
(dp3347
g991
g106
sg19
g3340
sg21
L17853L
sg28
I0
sg22
Nsg23
L16L
sg24
g3341
sg18
L17848L
sbag5
(g987
g7
Ntp3348
Rp3349
(dp3350
g991
g130
sg19
S'\x1c\x89\xd8[^_]\xc3'
p3351
sg21
L49470L
sg28
I0
sg22
Nsg23
L12L
sg24
(lp3352
g130
ag27
ag69
asg18
L49463L
sbag5
(g987
g7
Ntp3353
Rp3354
(dp3355
g991
g69
sg19
g3351
sg21
L49470L
sg28
I4
sg22
Nsg23
L12L
sg24
g3352
sg18
L49463L
sbag5
(g987
g7
Ntp3356
Rp3357
(dp3358
g991
g49
sg19
S'\x1c\xe8f\xc1\xfe\xff\x83\xc4\x18[\xc3'
p3359
sg21
L89758L
sg28
I24
sg22
Nsg23
L32L
sg24
(lp3360
g27
ag49
ag106
asg18
L89748L
sbag5
(g987
g7
Ntp3361
Rp3362
(dp3363
g991
g49
sg19
S'\x1c\xff0\xe8\x80k\x00\x00\x83\xc4\x18[\xc3'
p3364
sg21
L18884L
sg28
I24
sg22
Nsg23
L32L
sg24
(lp3365
g27
ag49
asg18
L18872L
sbag5
(g987
g7
Ntp3366
Rp3367
(dp3368
g991
g130
sg19
S'\x18[^_]\xc3'
p3369
sg21
L16360L
sg28
I0
sg22
Nsg23
L12L
sg24
(lp3370
g130
ag69
asg18
L16355L
sbag5
(g987
g7
Ntp3371
Rp3372
(dp3373
g991
g69
sg19
g3369
sg21
L16360L
sg28
I4
sg22
Nsg23
L12L
sg24
g3370
sg18
L16355L
sbag5
(g987
g7
Ntp3374
Rp3375
(dp3376
g991
g130
sg19
g151
sg21
L30309L
sg28
I8
sg22
Nsg23
L16L
sg24
g152
sg18
L30298L
sbag5
(g987
g7
Ntp3377
Rp3378
(dp3379
g991
g49
sg19
g151
sg21
L30309L
sg28
I0
sg22
Nsg23
L16L
sg24
g152
sg18
L30298L
sbag5
(g987
g7
Ntp3380
Rp3381
(dp3382
g991
g106
sg19
g151
sg21
L30309L
sg28
I4
sg22
Nsg23
L16L
sg24
g152
sg18
L30298L
sbag5
(g987
g7
Ntp3383
Rp3384
(dp3385
g991
g49
sg19
S'\x19\xc0\x83\xe0\xb5\x83\xc0x\x88B\t[\xc3'
p3386
sg21
L45770L
sg28
I0
sg22
Nsg23
L8L
sg24
(lp3387
g27
ag49
asg18
L45758L
sbag5
(g987
g7
Ntp3388
Rp3389
(dp3390
g991
g49
sg19
S'\x19\xc0\x83\xe0\xe0\x83\xc0t\x88B\t[\xc3'
p3391
sg21
L45721L
sg28
I0
sg22
Nsg23
L8L
sg24
(lp3392
g27
ag49
asg18
L45709L
sbag5
(g987
g7
Ntp3393
Rp3394
(dp3395
g991
g49
sg19
S'\x0f\x95\xc0\x83\xc4\x14[^\xc3'
p3396
sg21
L21031L
sg28
I20
sg22
Nsg23
L32L
sg24
(lp3397
g27
ag49
ag106
asg18
L21023L
sbag5
(g987
g7
Ntp3398
Rp3399
(dp3400
g991
g106
sg19
g3396
sg21
L21031L
sg28
I24
sg22
Nsg23
L32L
sg24
g3397
sg18
L21023L
sbag5
(g987
g7
Ntp3401
Rp3402
(dp3403
g991
g130
sg19
S'\x0f\x95\xc0_\xc3'
p3404
sg21
L16930L
sg28
I0
sg22
Nsg23
L8L
sg24
(lp3405
g130
ag27
asg18
L16926L
sbag5
(g987
g7
Ntp3406
Rp3407
(dp3408
g991
g49
sg19
S'\xd3\xe21\xf2\x89\x13[^\xc3'
p3409
sg21
L64969L
sg28
I0
sg22
Nsg23
L12L
sg24
(lp3410
g17
ag49
ag106
asg18
L64961L
sbag5
(g987
g7
Ntp3411
Rp3412
(dp3413
g991
g106
sg19
g3409
sg21
L64969L
sg28
I4
sg22
Nsg23
L12L
sg24
g3410
sg18
L64961L
sbag5
(g987
g7
Ntp3414
Rp3415
(dp3416
g991
g130
sg19
S',[^_]\xc3'
p3417
sg21
L35974L
sg28
I4
sg22
Nsg23
L16L
sg24
(lp3418
g130
ag27
ag69
ag106
asg18
L35969L
sbag5
(g987
g7
Ntp3419
Rp3420
(dp3421
g991
g69
sg19
g3417
sg21
L35974L
sg28
I8
sg22
Nsg23
L16L
sg24
g3418
sg18
L35969L
sbag5
(g987
g7
Ntp3422
Rp3423
(dp3424
g991
g106
sg19
g3417
sg21
L35974L
sg28
I0
sg22
Nsg23
L16L
sg24
g3418
sg18
L35969L
sbag5
(g987
g7
Ntp3425
Rp3426
(dp3427
g991
g130
sg19
S'(\x83\xc4\x1c[^_]\xc3'
p3428
sg21
L59741L
sg28
I0
sg22
Nsg23
L12L
sg24
(lp3429
g130
ag69
asg18
L59733L
sbag5
(g987
g7
Ntp3430
Rp3431
(dp3432
g991
g69
sg19
g3428
sg21
L59741L
sg28
I4
sg22
Nsg23
L12L
sg24
g3429
sg18
L59733L
sbag5
(g987
g7
Ntp3433
Rp3434
(dp3435
g991
g49
sg19
S'\x80k\x00\x00\x83\xc4\x18[\xc3'
p3436
sg21
L18884L
sg28
I24
sg22
Nsg23
L32L
sg24
(lp3437
g49
asg18
L18876L
sbag5
(g987
g7
Ntp3438
Rp3439
(dp3440
g991
g106
sg19
S'(\x89H,\x83\xc4\x04[^\xc3'
p3441
sg21
L65088L
sg28
I0
sg22
Nsg23
L8L
sg24
(lp3442
g27
ag106
asg18
L65079L
sbag5
(g987
g7
Ntp3443
Rp3444
(dp3445
g991
g69
sg19
S'*\x89\xd8[^_]\xc3'
p3446
sg21
L20899L
sg28
I0
sg22
Nsg23
L8L
sg24
(lp3447
g69
ag14
asg18
L20892L
sbag5
(g987
g7
Ntp3448
Rp3449
(dp3450
g991
g130
sg19
S'\xa8\xff\xff\x83\xc4\x10[^_\xc3'
p3451
sg21
L30110L
sg28
I0
sg22
Nsg23
L8L
sg24
(lp3452
g130
asg18
L30101L
sbag5
(g987
g7
Ntp3453
Rp3454
(dp3455
g991
g106
sg19
S'\x84\xff\xff\x83\xc4\x10\x83\xc4\x04[^\xc3'
p3456
sg21
L39176L
sg28
I0
sg22
Nsg23
L8L
sg24
(lp3457
g27
ag106
asg18
L39165L
sbag5
(g987
g7
Ntp3458
Rp3459
(dp3460
g991
g49
sg19
S'\x84\xd2\x0f\x95\xc0\x83\xc4\x14[^\xc3'
p3461
sg21
L21031L
sg28
I20
sg22
Nsg23
L32L
sg24
(lp3462
g27
ag49
ag106
asg18
L21021L
sbag5
(g987
g7
Ntp3463
Rp3464
(dp3465
g991
g106
sg19
g3461
sg21
L21031L
sg28
I24
sg22
Nsg23
L32L
sg24
g3462
sg18
L21021L
sbag5
(g987
g7
Ntp3466
Rp3467
(dp3468
g991
g130
sg19
S'\x85\xf2\x00\x00\x00\x81\xc4\xa0\x02\x00\x00[^_\xc3'
p3469
sg21
L28335L
sg28
I0
sg22
Nsg23
L8L
sg24
(lp3470
g130
asg18
L28321L
sbag5
(g987
g7
Ntp3471
Rp3472
(dp3473
g991
g130
sg19
S'\x96c\xff\xff\x83\xc4<[^_]\xc3'
p3474
sg21
L48977L
sg28
I0
sg22
Nsg23
L12L
sg24
(lp3475
g130
ag27
ag69
ag106
asg18
L48966L
sbag5
(g987
g7
Ntp3476
Rp3477
(dp3478
g991
g69
sg19
g3474
sg21
L48977L
sg28
I4
sg22
Nsg23
L12L
sg24
g3475
sg18
L48966L
sbag5
(g987
g7
Ntp3479
Rp3480
(dp3481
g991
g130
sg19
S'\xd7\x89\xf8[^_\xc3'
p3482
sg21
L44887L
sg28
I8
sg22
Nsg23
L16L
sg24
(lp3483
g130
ag27
ag49
ag106
asg18
L44881L
sbag5
(g987
g7
Ntp3484
Rp3485
(dp3486
g991
g49
sg19
g3482
sg21
L44887L
sg28
I0
sg22
Nsg23
L16L
sg24
g3483
sg18
L44881L
sbag5
(g987
g7
Ntp3487
Rp3488
(dp3489
g991
g106
sg19
g3482
sg21
L44887L
sg28
I4
sg22
Nsg23
L16L
sg24
g3483
sg18
L44881L
sbag5
(g987
g7
Ntp3490
Rp3491
(dp3492
g991
g49
sg19
S'0\xe8\xb0k\x00\x00\x83\xc4\x18[\xc3'
p3493
sg21
L18836L
sg28
I24
sg22
Nsg23
L32L
sg24
(lp3494
g27
ag49
asg18
L18826L
sbag5
(g987
g7
Ntp3495
Rp3496
(dp3497
g991
g49
sg19
S'0\xe8\x80k\x00\x00\x83\xc4\x18[\xc3'
p3498
sg21
L18884L
sg28
I24
sg22
Nsg23
L32L
sg24
(lp3499
g27
ag49
asg18
L18874L
sbag5
(g987
g7
Ntp3500
Rp3501
(dp3502
g991
g130
sg19
S'0\x83\xc4\x0c[^_]\xc3'
p3503
sg21
L83527L
sg28
I0
sg22
Nsg23
L12L
sg24
(lp3504
g130
ag69
asg18
L83519L
sbag5
(g987
g7
Ntp3505
Rp3506
(dp3507
g991
g69
sg19
g3503
sg21
L83527L
sg28
I4
sg22
Nsg23
L12L
sg24
g3504
sg18
L83519L
sbag5
(g987
g7
Ntp3508
Rp3509
(dp3510
g991
g130
sg19
S'0\x83\xc4,[^_]\xc3'
p3511
sg21
L75036L
sg28
I0
sg22
Nsg23
L12L
sg24
(lp3512
g130
ag69
asg18
L75028L
sbag5
(g987
g7
Ntp3513
Rp3514
(dp3515
g991
g69
sg19
g3511
sg21
L75036L
sg28
I4
sg22
Nsg23
L12L
sg24
g3512
sg18
L75028L
sbag5
(g987
g7
Ntp3516
Rp3517
(dp3518
g991
g130
sg19
S'0[^_\x0f\x95\xc0\xc3'
p3519
sg21
L16953L
sg28
I0
sg22
Nsg23
L8L
sg24
(lp3520
g130
ag27
asg18
L16946L
sbag5
(g987
g7
Ntp3521
Rp3522
(dp3523
g991
g130
sg19
S'>0[^_\x0f\x95\xc0\xc3'
p3524
sg21
L16953L
sg28
I0
sg22
Nsg23
L8L
sg24
(lp3525
g130
ag27
asg18
L16945L
sbag5
(g987
g7
Ntp3526
Rp3527
(dp3528
g991
g49
sg19
S'2\xe8\x00\x84\xff\xff\x83\xc4\x10\x83\xc4\x04[^\xc3'
p3529
sg21
L39336L
sg28
I4
sg22
Nsg23
L16L
sg24
(lp3530
g49
ag106
ag14
asg18
L39322L
sbag5
(g987
g7
Ntp3531
Rp3532
(dp3533
g991
g106
sg19
g3529
sg21
L39336L
sg28
I8
sg22
Nsg23
L16L
sg24
g3530
sg18
L39322L
sbag5
(g987
g7
Ntp3534
Rp3535
(dp3536
g991
g130
sg19
g979
sg21
L59873L
sg28
I8
sg22
Nsg23
L16L
sg24
g980
sg18
L59862L
sbag5
(g987
g7
Ntp3537
Rp3538
(dp3539
g991
g49
sg19
g979
sg21
L59873L
sg28
I0
sg22
Nsg23
L16L
sg24
g980
sg18
L59862L
sbag5
(g987
g7
Ntp3540
Rp3541
(dp3542
g991
g106
sg19
g979
sg21
L59873L
sg28
I4
sg22
Nsg23
L16L
sg24
g980
sg18
L59862L
sbag5
(g987
g7
Ntp3543
Rp3544
(dp3545
g991
g49
sg19
S'3C\x0c[^\t\xc2\x0f\x94\xc0\xc3'
p3546
sg21
L16131L
sg28
I0
sg22
Nsg23
L12L
sg24
(lp3547
g27
ag17
ag49
ag106
asg18
L16121L
sbag5
(g987
g7
Ntp3548
Rp3549
(dp3550
g991
g106
sg19
g3546
sg21
L16131L
sg28
I4
sg22
Nsg23
L12L
sg24
g3547
sg18
L16121L
sbag5
(g987
g7
Ntp3551
Rp3552
(dp3553
g991
g49
sg19
S'1\xc0\x83\xc4\x04[^\xc3'
p3554
sg21
L45286L
sg28
I4
sg22
Nsg23
L16L
sg24
(lp3555
g27
ag49
ag106
asg18
L45279L
sbag5
(g987
g7
Ntp3556
Rp3557
(dp3558
g991
g106
sg19
g3554
sg21
L45286L
sg28
I8
sg22
Nsg23
L16L
sg24
g3555
sg18
L45279L
sbag5
(g987
g7
Ntp3559
Rp3560
(dp3561
g991
g130
sg19
S'1\xc0[^_]\xc3'
p3562
sg21
L47912L
sg28
I8
sg22
Nsg23
L20L
sg24
(lp3563
g130
ag27
ag69
ag49
ag106
asg18
L47906L
sbag5
(g987
g7
Ntp3564
Rp3565
(dp3566
g991
g69
sg19
g3562
sg21
L47912L
sg28
I12
sg22
Nsg23
L20L
sg24
g3563
sg18
L47906L
sbag5
(g987
g7
Ntp3567
Rp3568
(dp3569
g991
g49
sg19
g3562
sg21
L47912L
sg28
I0
sg22
Nsg23
L20L
sg24
g3563
sg18
L47906L
sbag5
(g987
g7
Ntp3570
Rp3571
(dp3572
g991
g106
sg19
g3562
sg21
L47912L
sg28
I4
sg22
Nsg23
L20L
sg24
g3563
sg18
L47906L
sbag5
(g987
g7
Ntp3573
Rp3574
(dp3575
g991
g130
sg19
S'1\xc0[^_\xc3'
p3576
sg21
L16941L
sg28
I8
sg22
Nsg23
L16L
sg24
(lp3577
g130
ag27
ag49
ag106
asg18
L16936L
sbag5
(g987
g7
Ntp3578
Rp3579
(dp3580
g991
g49
sg19
g3576
sg21
L16941L
sg28
I0
sg22
Nsg23
L16L
sg24
g3577
sg18
L16936L
sbag5
(g987
g7
Ntp3581
Rp3582
(dp3583
g991
g106
sg19
g3576
sg21
L16941L
sg28
I4
sg22
Nsg23
L16L
sg24
g3577
sg18
L16936L
sbag5
(g987
g7
Ntp3584
Rp3585
(dp3586
g991
g49
sg19
S'1\xc0[^\xc3'
p3587
sg21
L16108L
sg28
I0
sg22
Nsg23
L12L
sg24
(lp3588
g27
ag49
ag106
asg18
L16104L
sbag5
(g987
g7
Ntp3589
Rp3590
(dp3591
g991
g106
sg19
g3587
sg21
L16108L
sg28
I4
sg22
Nsg23
L12L
sg24
g3588
sg18
L16104L
sbag5
(g987
g7
Ntp3592
Rp3593
(dp3594
g991
g49
sg19
S'1\xc0[\xc3'
p3595
sg21
L49152L
sg28
I0
sg22
Nsg23
L8L
sg24
(lp3596
g27
ag49
asg18
L49149L
sbag5
(g987
g7
Ntp3597
Rp3598
(dp3599
g991
g130
sg19
S'1\xc0^_\xc3'
p3600
sg21
L47491L
sg28
I4
sg22
Nsg23
L12L
sg24
(lp3601
g130
ag27
ag106
asg18
L47487L
sbag5
(g987
g7
Ntp3602
Rp3603
(dp3604
g991
g106
sg19
g3600
sg21
L47491L
sg28
I0
sg22
Nsg23
L12L
sg24
g3601
sg18
L47487L
sbag5
(g987
g7
Ntp3605
Rp3606
(dp3607
g991
g49
sg19
g780
sg21
L89815L
sg28
I8
sg22
Nsg23
L16L
sg24
g781
sg18
L89807L
sbag5
(g987
g7
Ntp3608
Rp3609
(dp3610
g991
g49
sg19
g785
sg21
L64969L
sg28
I0
sg22
Nsg23
L12L
sg24
g786
sg18
L64963L
sbag5
(g987
g7
Ntp3611
Rp3612
(dp3613
g991
g106
sg19
g785
sg21
L64969L
sg28
I4
sg22
Nsg23
L12L
sg24
g786
sg18
L64963L
sbas.